
Optional file libmchp_peripheral.a not found

Optional file libmchp_peripheral_32MX795F512L.a not found
Archive member included because of file (symbol)

c:/program files (x86)/microchip/xc32/v2.15/bin/bin/../../lib/gcc/pic32mx/4.8.3\libgcc.a(floatunsisf.o)
                              build/default/debug/_ext/1360937237/TxThread.o (__floatunsisf)
c:/program files (x86)/microchip/xc32/v2.15/bin/bin/../../lib/gcc/pic32mx/4.8.3/../../../../pic32mx/lib\libpic32.a(memcpy.o)
                              build/default/debug/_ext/45544379/cJSON.o (memcpy)
c:/program files (x86)/microchip/xc32/v2.15/bin/bin/../../lib/gcc/pic32mx/4.8.3/../../../../pic32mx/lib\libpic32.a(memset.o)
                              build/default/debug/_ext/1688732426/system_interrupt.o (memset)
c:/program files (x86)/microchip/xc32/v2.15/bin/bin/../../lib/gcc/pic32mx/4.8.3/../../../../pic32mx/lib\libpic32.a(strcmp.o)
                              build/default/debug/_ext/45544379/cJSON.o (strcmp)
c:/program files (x86)/microchip/xc32/v2.15/bin/bin/../../lib/gcc/pic32mx/4.8.3/../../../../pic32mx/lib\libpic32.a(strlen.o)
                              build/default/debug/_ext/1688732426/system_interrupt.o (strlen)
c:/program files (x86)/microchip/xc32/v2.15/bin/bin/../../lib/gcc/pic32mx/4.8.3/../../../../pic32mx/lib\libpic32.a(default-bootstrap-exception-handler.o)
                              C:\Users\MOQIZH~1\AppData\Local\Temp\ccYY4veD.o (_bootstrap_exception_handler)
c:/program files (x86)/microchip/xc32/v2.15/bin/bin/../../lib/gcc/pic32mx/4.8.3/../../../../pic32mx/lib\libpic32.a(default-on-reset.o)
                              C:\Users\MOQIZH~1\AppData\Local\Temp\ccYY4veD.o (_on_reset)
c:/program files (x86)/microchip/xc32/v2.15/bin/bin/../../lib/gcc/pic32mx/4.8.3/../../../../pic32mx/lib\libpic32.a(default-on-bootstrap.o)
                              C:\Users\MOQIZH~1\AppData\Local\Temp\ccYY4veD.o (_on_bootstrap)
c:/program files (x86)/microchip/xc32/v2.15/bin/bin/../../lib/gcc/pic32mx/4.8.3/../../../../pic32mx/lib\libpic32.a(default-nmi-handler.o)
                              C:\Users\MOQIZH~1\AppData\Local\Temp\ccYY4veD.o (_nmi_handler)
c:/program files (x86)/microchip/xc32/v2.15/bin/bin/../../lib/gcc/pic32mx/4.8.3/../../../../pic32mx/lib\libpic32.a(pic32_data_init.o)
                              C:\Users\MOQIZH~1\AppData\Local\Temp\ccYY4veD.o (__pic32_data_init)
c:/program files (x86)/microchip/xc32/v2.15/bin/bin/../../lib/gcc/pic32mx/4.8.3/../../../../pic32mx/lib\libpic32.a(general-exception.o)
                              C:\Users\MOQIZH~1\AppData\Local\Temp\ccYY4veD.o (_general_exception_context)
c:/program files (x86)/microchip/xc32/v2.15/bin/bin/../../lib/gcc/pic32mx/4.8.3/../../../../pic32mx/lib\libpic32.a(vector0.o)
                              C:\Users\MOQIZH~1\AppData\Local\Temp\ccnf1BQ8.o (__vector_dispatch_0)
c:/program files (x86)/microchip/xc32/v2.15/bin/bin/../../lib/gcc/pic32mx/4.8.3/../../../../pic32mx/lib\libpic32.a(vector2.o)
                              C:\Users\MOQIZH~1\AppData\Local\Temp\ccnf1BQ8.o (__vector_dispatch_2)
c:/program files (x86)/microchip/xc32/v2.15/bin/bin/../../lib/gcc/pic32mx/4.8.3/../../../../pic32mx/lib\libpic32.a(vector3.o)
                              C:\Users\MOQIZH~1\AppData\Local\Temp\ccnf1BQ8.o (__vector_dispatch_3)
c:/program files (x86)/microchip/xc32/v2.15/bin/bin/../../lib/gcc/pic32mx/4.8.3/../../../../pic32mx/lib\libpic32.a(vector5.o)
                              C:\Users\MOQIZH~1\AppData\Local\Temp\ccnf1BQ8.o (__vector_dispatch_5)
c:/program files (x86)/microchip/xc32/v2.15/bin/bin/../../lib/gcc/pic32mx/4.8.3/../../../../pic32mx/lib\libpic32.a(vector6.o)
                              C:\Users\MOQIZH~1\AppData\Local\Temp\ccnf1BQ8.o (__vector_dispatch_6)
c:/program files (x86)/microchip/xc32/v2.15/bin/bin/../../lib/gcc/pic32mx/4.8.3/../../../../pic32mx/lib\libpic32.a(vector7.o)
                              C:\Users\MOQIZH~1\AppData\Local\Temp\ccnf1BQ8.o (__vector_dispatch_7)
c:/program files (x86)/microchip/xc32/v2.15/bin/bin/../../lib/gcc/pic32mx/4.8.3/../../../../pic32mx/lib\libpic32.a(vector9.o)
                              C:\Users\MOQIZH~1\AppData\Local\Temp\ccnf1BQ8.o (__vector_dispatch_9)
c:/program files (x86)/microchip/xc32/v2.15/bin/bin/../../lib/gcc/pic32mx/4.8.3/../../../../pic32mx/lib\libpic32.a(vector10.o)
                              C:\Users\MOQIZH~1\AppData\Local\Temp\ccnf1BQ8.o (__vector_dispatch_10)
c:/program files (x86)/microchip/xc32/v2.15/bin/bin/../../lib/gcc/pic32mx/4.8.3/../../../../pic32mx/lib\libpic32.a(vector11.o)
                              C:\Users\MOQIZH~1\AppData\Local\Temp\ccnf1BQ8.o (__vector_dispatch_11)
c:/program files (x86)/microchip/xc32/v2.15/bin/bin/../../lib/gcc/pic32mx/4.8.3/../../../../pic32mx/lib\libpic32.a(vector13.o)
                              C:\Users\MOQIZH~1\AppData\Local\Temp\ccnf1BQ8.o (__vector_dispatch_13)
c:/program files (x86)/microchip/xc32/v2.15/bin/bin/../../lib/gcc/pic32mx/4.8.3/../../../../pic32mx/lib\libpic32.a(vector14.o)
                              C:\Users\MOQIZH~1\AppData\Local\Temp\ccnf1BQ8.o (__vector_dispatch_14)
c:/program files (x86)/microchip/xc32/v2.15/bin/bin/../../lib/gcc/pic32mx/4.8.3/../../../../pic32mx/lib\libpic32.a(vector15.o)
                              C:\Users\MOQIZH~1\AppData\Local\Temp\ccnf1BQ8.o (__vector_dispatch_15)
c:/program files (x86)/microchip/xc32/v2.15/bin/bin/../../lib/gcc/pic32mx/4.8.3/../../../../pic32mx/lib\libpic32.a(vector16.o)
                              C:\Users\MOQIZH~1\AppData\Local\Temp\ccnf1BQ8.o (__vector_dispatch_16)
c:/program files (x86)/microchip/xc32/v2.15/bin/bin/../../lib/gcc/pic32mx/4.8.3/../../../../pic32mx/lib\libpic32.a(vector17.o)
                              C:\Users\MOQIZH~1\AppData\Local\Temp\ccnf1BQ8.o (__vector_dispatch_17)
c:/program files (x86)/microchip/xc32/v2.15/bin/bin/../../lib/gcc/pic32mx/4.8.3/../../../../pic32mx/lib\libpic32.a(vector18.o)
                              C:\Users\MOQIZH~1\AppData\Local\Temp\ccnf1BQ8.o (__vector_dispatch_18)
c:/program files (x86)/microchip/xc32/v2.15/bin/bin/../../lib/gcc/pic32mx/4.8.3/../../../../pic32mx/lib\libpic32.a(vector19.o)
                              C:\Users\MOQIZH~1\AppData\Local\Temp\ccnf1BQ8.o (__vector_dispatch_19)
c:/program files (x86)/microchip/xc32/v2.15/bin/bin/../../lib/gcc/pic32mx/4.8.3/../../../../pic32mx/lib\libpic32.a(vector20.o)
                              C:\Users\MOQIZH~1\AppData\Local\Temp\ccnf1BQ8.o (__vector_dispatch_20)
c:/program files (x86)/microchip/xc32/v2.15/bin/bin/../../lib/gcc/pic32mx/4.8.3/../../../../pic32mx/lib\libpic32.a(vector21.o)
                              C:\Users\MOQIZH~1\AppData\Local\Temp\ccnf1BQ8.o (__vector_dispatch_21)
c:/program files (x86)/microchip/xc32/v2.15/bin/bin/../../lib/gcc/pic32mx/4.8.3/../../../../pic32mx/lib\libpic32.a(vector22.o)
                              C:\Users\MOQIZH~1\AppData\Local\Temp\ccnf1BQ8.o (__vector_dispatch_22)
c:/program files (x86)/microchip/xc32/v2.15/bin/bin/../../lib/gcc/pic32mx/4.8.3/../../../../pic32mx/lib\libpic32.a(vector23.o)
                              C:\Users\MOQIZH~1\AppData\Local\Temp\ccnf1BQ8.o (__vector_dispatch_23)
c:/program files (x86)/microchip/xc32/v2.15/bin/bin/../../lib/gcc/pic32mx/4.8.3/../../../../pic32mx/lib\libpic32.a(vector25.o)
                              C:\Users\MOQIZH~1\AppData\Local\Temp\ccnf1BQ8.o (__vector_dispatch_25)
c:/program files (x86)/microchip/xc32/v2.15/bin/bin/../../lib/gcc/pic32mx/4.8.3/../../../../pic32mx/lib\libpic32.a(vector26.o)
                              C:\Users\MOQIZH~1\AppData\Local\Temp\ccnf1BQ8.o (__vector_dispatch_26)
c:/program files (x86)/microchip/xc32/v2.15/bin/bin/../../lib/gcc/pic32mx/4.8.3/../../../../pic32mx/lib\libpic32.a(vector28.o)
                              C:\Users\MOQIZH~1\AppData\Local\Temp\ccnf1BQ8.o (__vector_dispatch_28)
c:/program files (x86)/microchip/xc32/v2.15/bin/bin/../../lib/gcc/pic32mx/4.8.3/../../../../pic32mx/lib\libpic32.a(vector29.o)
                              C:\Users\MOQIZH~1\AppData\Local\Temp\ccnf1BQ8.o (__vector_dispatch_29)
c:/program files (x86)/microchip/xc32/v2.15/bin/bin/../../lib/gcc/pic32mx/4.8.3/../../../../pic32mx/lib\libpic32.a(vector30.o)
                              C:\Users\MOQIZH~1\AppData\Local\Temp\ccnf1BQ8.o (__vector_dispatch_30)
c:/program files (x86)/microchip/xc32/v2.15/bin/bin/../../lib/gcc/pic32mx/4.8.3/../../../../pic32mx/lib\libpic32.a(vector33.o)
                              C:\Users\MOQIZH~1\AppData\Local\Temp\ccnf1BQ8.o (__vector_dispatch_33)
c:/program files (x86)/microchip/xc32/v2.15/bin/bin/../../lib/gcc/pic32mx/4.8.3/../../../../pic32mx/lib\libpic32.a(vector34.o)
                              C:\Users\MOQIZH~1\AppData\Local\Temp\ccnf1BQ8.o (__vector_dispatch_34)
c:/program files (x86)/microchip/xc32/v2.15/bin/bin/../../lib/gcc/pic32mx/4.8.3/../../../../pic32mx/lib\libpic32.a(vector35.o)
                              C:\Users\MOQIZH~1\AppData\Local\Temp\ccnf1BQ8.o (__vector_dispatch_35)
c:/program files (x86)/microchip/xc32/v2.15/bin/bin/../../lib/gcc/pic32mx/4.8.3/../../../../pic32mx/lib\libpic32.a(vector36.o)
                              C:\Users\MOQIZH~1\AppData\Local\Temp\ccnf1BQ8.o (__vector_dispatch_36)
c:/program files (x86)/microchip/xc32/v2.15/bin/bin/../../lib/gcc/pic32mx/4.8.3/../../../../pic32mx/lib\libpic32.a(vector37.o)
                              C:\Users\MOQIZH~1\AppData\Local\Temp\ccnf1BQ8.o (__vector_dispatch_37)
c:/program files (x86)/microchip/xc32/v2.15/bin/bin/../../lib/gcc/pic32mx/4.8.3/../../../../pic32mx/lib\libpic32.a(vector38.o)
                              C:\Users\MOQIZH~1\AppData\Local\Temp\ccnf1BQ8.o (__vector_dispatch_38)
c:/program files (x86)/microchip/xc32/v2.15/bin/bin/../../lib/gcc/pic32mx/4.8.3/../../../../pic32mx/lib\libpic32.a(vector39.o)
                              C:\Users\MOQIZH~1\AppData\Local\Temp\ccnf1BQ8.o (__vector_dispatch_39)
c:/program files (x86)/microchip/xc32/v2.15/bin/bin/../../lib/gcc/pic32mx/4.8.3/../../../../pic32mx/lib\libpic32.a(vector40.o)
                              C:\Users\MOQIZH~1\AppData\Local\Temp\ccnf1BQ8.o (__vector_dispatch_40)
c:/program files (x86)/microchip/xc32/v2.15/bin/bin/../../lib/gcc/pic32mx/4.8.3/../../../../pic32mx/lib\libpic32.a(vector41.o)
                              C:\Users\MOQIZH~1\AppData\Local\Temp\ccnf1BQ8.o (__vector_dispatch_41)
c:/program files (x86)/microchip/xc32/v2.15/bin/bin/../../lib/gcc/pic32mx/4.8.3/../../../../pic32mx/lib\libpic32.a(vector42.o)
                              C:\Users\MOQIZH~1\AppData\Local\Temp\ccnf1BQ8.o (__vector_dispatch_42)
c:/program files (x86)/microchip/xc32/v2.15/bin/bin/../../lib/gcc/pic32mx/4.8.3/../../../../pic32mx/lib\libpic32.a(vector43.o)
                              C:\Users\MOQIZH~1\AppData\Local\Temp\ccnf1BQ8.o (__vector_dispatch_43)
c:/program files (x86)/microchip/xc32/v2.15/bin/bin/../../lib/gcc/pic32mx/4.8.3/../../../../pic32mx/lib\libpic32.a(vector44.o)
                              C:\Users\MOQIZH~1\AppData\Local\Temp\ccnf1BQ8.o (__vector_dispatch_44)
c:/program files (x86)/microchip/xc32/v2.15/bin/bin/../../lib/gcc/pic32mx/4.8.3/../../../../pic32mx/lib\libpic32.a(vector45.o)
                              C:\Users\MOQIZH~1\AppData\Local\Temp\ccnf1BQ8.o (__vector_dispatch_45)
c:/program files (x86)/microchip/xc32/v2.15/bin/bin/../../lib/gcc/pic32mx/4.8.3/../../../../pic32mx/lib\libpic32.a(vector46.o)
                              C:\Users\MOQIZH~1\AppData\Local\Temp\ccnf1BQ8.o (__vector_dispatch_46)
c:/program files (x86)/microchip/xc32/v2.15/bin/bin/../../lib/gcc/pic32mx/4.8.3/../../../../pic32mx/lib\libpic32.a(vector47.o)
                              C:\Users\MOQIZH~1\AppData\Local\Temp\ccnf1BQ8.o (__vector_dispatch_47)
c:/program files (x86)/microchip/xc32/v2.15/bin/bin/../../lib/gcc/pic32mx/4.8.3/../../../../pic32mx/lib\libpic32.a(vector48.o)
                              C:\Users\MOQIZH~1\AppData\Local\Temp\ccnf1BQ8.o (__vector_dispatch_48)
c:/program files (x86)/microchip/xc32/v2.15/bin/bin/../../lib/gcc/pic32mx/4.8.3/../../../../pic32mx/lib\libpic32.a(vector50.o)
                              C:\Users\MOQIZH~1\AppData\Local\Temp\ccnf1BQ8.o (__vector_dispatch_50)
c:/program files (x86)/microchip/xc32/v2.15/bin/bin/../../lib/gcc/pic32mx/4.8.3/../../../../pic32mx/lib\libpic32.a(vector51.o)
                              C:\Users\MOQIZH~1\AppData\Local\Temp\ccnf1BQ8.o (__vector_dispatch_51)
c:/program files (x86)/microchip/xc32/v2.15/bin/bin/../../lib/gcc/pic32mx/4.8.3/../../../../pic32mx/lib\libpic32.a(defaultinterrupt.o)
                              c:/program files (x86)/microchip/xc32/v2.15/bin/bin/../../lib/gcc/pic32mx/4.8.3/../../../../pic32mx/lib\libpic32.a(vector0.o) (_DefaultInterrupt)
c:/program files (x86)/microchip/xc32/v2.15/bin/bin/../../lib/gcc/pic32mx/4.8.3/../../../../pic32mx/lib\libc.a(ctypef.o)
                              build/default/debug/_ext/45544379/cJSON.o (tolower)
c:/program files (x86)/microchip/xc32/v2.15/bin/bin/../../lib/gcc/pic32mx/4.8.3/../../../../pic32mx/lib\libc.a(malloc.o)
                              build/default/debug/_ext/45544379/cJSON.o (malloc)
c:/program files (x86)/microchip/xc32/v2.15/bin/bin/../../lib/gcc/pic32mx/4.8.3/../../../../pic32mx/lib\libc.a(strcat.o)
                              build/default/debug/_ext/45544379/JSON.o (strcat)
c:/program files (x86)/microchip/xc32/v2.15/bin/bin/../../lib/gcc/pic32mx/4.8.3/../../../../pic32mx/lib\libc.a(strncmp.o)
                              build/default/debug/_ext/45544379/cJSON.o (strncmp)
c:/program files (x86)/microchip/xc32/v2.15/bin/bin/../../lib/gcc/pic32mx/4.8.3/../../../../pic32mx/lib\libc.a(strtod.o)
                              build/default/debug/_ext/45544379/cJSON.o (strtod)
c:/program files (x86)/microchip/xc32/v2.15/bin/bin/../../lib/gcc/pic32mx/4.8.3/../../../../pic32mx/lib\libc.a(sprintf_cdgGnopuxX.eo)
                              build/default/debug/_ext/45544379/cJSON.o (_sprintf_cdgGnopuxX)
c:/program files (x86)/microchip/xc32/v2.15/bin/bin/../../lib/gcc/pic32mx/4.8.3/../../../../pic32mx/lib\libc.a(sprintf_cdnopuxX.eo)
                              build/default/debug/_ext/45544379/JSON.o (_sprintf_cdnopuxX)
c:/program files (x86)/microchip/xc32/v2.15/bin/bin/../../lib/gcc/pic32mx/4.8.3/../../../../pic32mx/lib\libc.a(sscanf_gG.eo)
                              build/default/debug/_ext/45544379/cJSON.o (_sscanf_gG)
c:/program files (x86)/microchip/xc32/v2.15/bin/bin/../../lib/gcc/pic32mx/4.8.3/../../../../pic32mx/lib\libc.a(ctype.o)
                              c:/program files (x86)/microchip/xc32/v2.15/bin/bin/../../lib/gcc/pic32mx/4.8.3/../../../../pic32mx/lib\libc.a(ctypef.o) (_ctype)
c:/program files (x86)/microchip/xc32/v2.15/bin/bin/../../lib/gcc/pic32mx/4.8.3/../../../../pic32mx/lib\libc.a(doprnt_cdgGnopuxX.eo)
                              c:/program files (x86)/microchip/xc32/v2.15/bin/bin/../../lib/gcc/pic32mx/4.8.3/../../../../pic32mx/lib\libc.a(sprintf_cdgGnopuxX.eo) (_vfprintf_cdgGnopuxX)
c:/program files (x86)/microchip/xc32/v2.15/bin/bin/../../lib/gcc/pic32mx/4.8.3/../../../../pic32mx/lib\libc.a(doprnt_cdnopuxX.eo)
                              c:/program files (x86)/microchip/xc32/v2.15/bin/bin/../../lib/gcc/pic32mx/4.8.3/../../../../pic32mx/lib\libc.a(sprintf_cdnopuxX.eo) (_vfprintf_cdnopuxX)
c:/program files (x86)/microchip/xc32/v2.15/bin/bin/../../lib/gcc/pic32mx/4.8.3/../../../../pic32mx/lib\libc.a(doscan_gG.eo)
                              c:/program files (x86)/microchip/xc32/v2.15/bin/bin/../../lib/gcc/pic32mx/4.8.3/../../../../pic32mx/lib\libc.a(sscanf_gG.eo) (_vfscanf_gG)
c:/program files (x86)/microchip/xc32/v2.15/bin/bin/../../lib/gcc/pic32mx/4.8.3/../../../../pic32mx/lib\libc.a(fgetc.o)
                              c:/program files (x86)/microchip/xc32/v2.15/bin/bin/../../lib/gcc/pic32mx/4.8.3/../../../../pic32mx/lib\libc.a(doscan_gG.eo) (fgetc)
c:/program files (x86)/microchip/xc32/v2.15/bin/bin/../../lib/gcc/pic32mx/4.8.3/../../../../pic32mx/lib\libc.a(_fputc_simple.o)
                              c:/program files (x86)/microchip/xc32/v2.15/bin/bin/../../lib/gcc/pic32mx/4.8.3/../../../../pic32mx/lib\libc.a(doprnt_cdgGnopuxX.eo) (fputc)
c:/program files (x86)/microchip/xc32/v2.15/bin/bin/../../lib/gcc/pic32mx/4.8.3/../../../../pic32mx/lib\libc.a(atoi.o)
                              c:/program files (x86)/microchip/xc32/v2.15/bin/bin/../../lib/gcc/pic32mx/4.8.3/../../../../pic32mx/lib\libc.a(doscan_gG.eo) (atoi)
c:/program files (x86)/microchip/xc32/v2.15/bin/bin/../../lib/gcc/pic32mx/4.8.3/../../../../pic32mx/lib\libc.a(ldpowers.o)
                              c:/program files (x86)/microchip/xc32/v2.15/bin/bin/../../lib/gcc/pic32mx/4.8.3/../../../../pic32mx/lib\libc.a(doprnt_cdgGnopuxX.eo) (_npowers_)
c:/program files (x86)/microchip/xc32/v2.15/bin/bin/../../lib/gcc/pic32mx/4.8.3/../../../../pic32mx/lib\libc.a(strtof.o)
                              c:/program files (x86)/microchip/xc32/v2.15/bin/bin/../../lib/gcc/pic32mx/4.8.3/../../../../pic32mx/lib\libc.a(doscan_gG.eo) (strtof)
c:/program files (x86)/microchip/xc32/v2.15/bin/bin/../../lib/gcc/pic32mx/4.8.3/../../../../pic32mx/lib\libc.a(ungetc.o)
                              c:/program files (x86)/microchip/xc32/v2.15/bin/bin/../../lib/gcc/pic32mx/4.8.3/../../../../pic32mx/lib\libc.a(doscan_gG.eo) (ungetc)
c:/program files (x86)/microchip/xc32/v2.15/bin/bin/../../lib/gcc/pic32mx/4.8.3/../../../../pic32mx/lib\libc.a(_iob.o)
                              c:/program files (x86)/microchip/xc32/v2.15/bin/bin/../../lib/gcc/pic32mx/4.8.3/../../../../pic32mx/lib\libc.a(_fputc_simple.o) (_outdone)
c:/program files (x86)/microchip/xc32/v2.15/bin/bin/../../lib/gcc/pic32mx/4.8.3/../../../../pic32mx/lib\libc.a(filbuf.o)
                              c:/program files (x86)/microchip/xc32/v2.15/bin/bin/../../lib/gcc/pic32mx/4.8.3/../../../../pic32mx/lib\libc.a(fgetc.o) (_filbuf)
c:/program files (x86)/microchip/xc32/v2.15/bin/bin/../../lib/gcc/pic32mx/4.8.3/../../../../pic32mx/lib\libc.a(_flsbuf_simple.o)
                              c:/program files (x86)/microchip/xc32/v2.15/bin/bin/../../lib/gcc/pic32mx/4.8.3/../../../../pic32mx/lib\libc.a(_fputc_simple.o) (_flsbuf)
c:/program files (x86)/microchip/xc32/v2.15/bin/bin/../../lib/gcc/pic32mx/4.8.3/../../../../pic32mx/lib\libc.a(fflush.o)
                              c:/program files (x86)/microchip/xc32/v2.15/bin/bin/../../lib/gcc/pic32mx/4.8.3/../../../../pic32mx/lib\libc.a(filbuf.o) (fflush)
c:/program files (x86)/microchip/xc32/v2.15/bin/bin/../../lib/gcc/pic32mx/4.8.3/../../../../pic32mx/lib\libm.a(dpfrexp.o)
                              c:/program files (x86)/microchip/xc32/v2.15/bin/bin/../../lib/gcc/pic32mx/4.8.3/../../../../pic32mx/lib\libc.a(doprnt_cdgGnopuxX.eo) (frexpl)
c:/program files (x86)/microchip/xc32/v2.15/bin/bin/../../lib/gcc/pic32mx/4.8.3/../../../../pic32mx/lib\libm.a(dp32div.o)
                              c:/program files (x86)/microchip/xc32/v2.15/bin/bin/../../lib/gcc/pic32mx/4.8.3/../../../../pic32mx/lib\libc.a(doprnt_cdgGnopuxX.eo) (dpdiv)
c:/program files (x86)/microchip/xc32/v2.15/bin/bin/../../lib/gcc/pic32mx/4.8.3/../../../../pic32mx/lib\libm.a(dp32mul.o)
                              c:/program files (x86)/microchip/xc32/v2.15/bin/bin/../../lib/gcc/pic32mx/4.8.3/../../../../pic32mx/lib\libc.a(doprnt_cdgGnopuxX.eo) (dpmul)
c:/program files (x86)/microchip/xc32/v2.15/bin/bin/../../lib/gcc/pic32mx/4.8.3/../../../../pic32mx/lib\libm.a(dp32subadd.o)
                              c:/program files (x86)/microchip/xc32/v2.15/bin/bin/../../lib/gcc/pic32mx/4.8.3/../../../../pic32mx/lib\libc.a(doprnt_cdgGnopuxX.eo) (dpsub)
c:/program files (x86)/microchip/xc32/v2.15/bin/bin/../../lib/gcc/pic32mx/4.8.3/../../../../pic32mx/lib\libm.a(dpcmp.o)
                              c:/program files (x86)/microchip/xc32/v2.15/bin/bin/../../lib/gcc/pic32mx/4.8.3/../../../../pic32mx/lib\libc.a(doprnt_cdgGnopuxX.eo) (dpcmp)
c:/program files (x86)/microchip/xc32/v2.15/bin/bin/../../lib/gcc/pic32mx/4.8.3/../../../../pic32mx/lib\libm.a(dptofp.o)
                              c:/program files (x86)/microchip/xc32/v2.15/bin/bin/../../lib/gcc/pic32mx/4.8.3/../../../../pic32mx/lib\libc.a(strtod.o) (dptofp)
c:/program files (x86)/microchip/xc32/v2.15/bin/bin/../../lib/gcc/pic32mx/4.8.3/../../../../pic32mx/lib\libm.a(dptoul.o)
                              c:/program files (x86)/microchip/xc32/v2.15/bin/bin/../../lib/gcc/pic32mx/4.8.3/../../../../pic32mx/lib\libc.a(doprnt_cdgGnopuxX.eo) (dptoul)
c:/program files (x86)/microchip/xc32/v2.15/bin/bin/../../lib/gcc/pic32mx/4.8.3/../../../../pic32mx/lib\libm.a(fp32mul.o)
                              build/default/debug/_ext/45544379/cJSON.o (fpmul)
c:/program files (x86)/microchip/xc32/v2.15/bin/bin/../../lib/gcc/pic32mx/4.8.3/../../../../pic32mx/lib\libm.a(fp32subadd.o)
                              c:/program files (x86)/microchip/xc32/v2.15/bin/bin/../../lib/gcc/pic32mx/4.8.3\libgcc.a(floatunsisf.o) (fpadd)
c:/program files (x86)/microchip/xc32/v2.15/bin/bin/../../lib/gcc/pic32mx/4.8.3/../../../../pic32mx/lib\libm.a(fpcmp.o)
                              build/default/debug/_ext/45544379/cJSON.o (fpcmp)
c:/program files (x86)/microchip/xc32/v2.15/bin/bin/../../lib/gcc/pic32mx/4.8.3/../../../../pic32mx/lib\libm.a(fptodp.o)
                              c:/program files (x86)/microchip/xc32/v2.15/bin/bin/../../lib/gcc/pic32mx/4.8.3/../../../../pic32mx/lib\libc.a(doprnt_cdgGnopuxX.eo) (fptodp)
c:/program files (x86)/microchip/xc32/v2.15/bin/bin/../../lib/gcc/pic32mx/4.8.3/../../../../pic32mx/lib\libm.a(fptoli.o)
                              build/default/debug/_ext/45544379/cJSON.o (fptosi)
c:/program files (x86)/microchip/xc32/v2.15/bin/bin/../../lib/gcc/pic32mx/4.8.3/../../../../pic32mx/lib\libm.a(sitofp.o)
                              build/default/debug/_ext/1360937237/TxThread.o (sitofp)
c:/program files (x86)/microchip/xc32/v2.15/bin/bin/../../lib/gcc/pic32mx/4.8.3/../../../../pic32mx/lib\libm.a(__strtod.o)
                              c:/program files (x86)/microchip/xc32/v2.15/bin/bin/../../lib/gcc/pic32mx/4.8.3/../../../../pic32mx/lib\libc.a(strtod.o) (__strtod)
c:/program files (x86)/microchip/xc32/v2.15/bin/bin/../../lib/gcc/pic32mx/4.8.3/../../../../pic32mx/lib\libm.a(__strtof.o)
                              c:/program files (x86)/microchip/xc32/v2.15/bin/bin/../../lib/gcc/pic32mx/4.8.3/../../../../pic32mx/lib\libc.a(strtof.o) (__strtof)
c:/program files (x86)/microchip/xc32/v2.15/bin/bin/../../lib/gcc/pic32mx/4.8.3/../../../../pic32mx/lib\libm.a(fp32div.o)
                              c:/program files (x86)/microchip/xc32/v2.15/bin/bin/../../lib/gcc/pic32mx/4.8.3/../../../../pic32mx/lib\libm.a(__strtof.o) (__divsf3)
c:/program files (x86)/microchip/xc32/v2.15/bin/bin/../../lib/gcc/pic32mx/4.8.3/../../../../pic32mx/lib\libm.a(litodp.o)
                              c:/program files (x86)/microchip/xc32/v2.15/bin/bin/../../lib/gcc/pic32mx/4.8.3/../../../../pic32mx/lib\libm.a(__strtod.o) (__floatsidf)
c:/program files (x86)/microchip/xc32/v2.15/bin/bin/../../lib/gcc/pic32mx/4.8.3/../../../../pic32mx/lib\libm.a(negdf2.o)
                              c:/program files (x86)/microchip/xc32/v2.15/bin/bin/../../lib/gcc/pic32mx/4.8.3/../../../../pic32mx/lib\libm.a(__strtod.o) (__negdf2)
c:/program files (x86)/microchip/xc32/v2.15/bin/bin/../../lib/gcc/pic32mx/4.8.3/../../../../pic32mx/lib\libm.a(negsf2.o)
                              c:/program files (x86)/microchip/xc32/v2.15/bin/bin/../../lib/gcc/pic32mx/4.8.3/../../../../pic32mx/lib\libm.a(__strtof.o) (__negsf2)
c:/program files (x86)/microchip/xc32/v2.15/bin/bin/../../lib/gcc/pic32mx/4.8.3/../../../../pic32mx/lib\libe.a(_fixunsdfdi.o)
                              c:/program files (x86)/microchip/xc32/v2.15/bin/bin/../../lib/gcc/pic32mx/4.8.3/../../../../pic32mx/lib\libc.a(doprnt_cdgGnopuxX.eo) (__fixunsdfdi)
c:/program files (x86)/microchip/xc32/v2.15/bin/bin/../../lib/gcc/pic32mx/4.8.3/../../../../pic32mx/lib\libe.a(_orderdf2.o)
                              c:/program files (x86)/microchip/xc32/v2.15/bin/bin/../../lib/gcc/pic32mx/4.8.3/../../../../pic32mx/lib\libe.a(_fixunsdfdi.o) (__orderdf2)
c:/program files (x86)/microchip/xc32/v2.15/bin/bin/../../lib/gcc/pic32mx/4.8.3/../../../../pic32mx/lib\libe.a(_ldexp.o)
                              c:/program files (x86)/microchip/xc32/v2.15/bin/bin/../../lib/gcc/pic32mx/4.8.3/../../../../pic32mx/lib\libm.a(__strtod.o) (__ldexp)
c:/program files (x86)/microchip/xc32/v2.15/bin/bin/../../lib/gcc/pic32mx/4.8.3/../../../../pic32mx/lib\libe.a(_ldexpf.o)
                              c:/program files (x86)/microchip/xc32/v2.15/bin/bin/../../lib/gcc/pic32mx/4.8.3/../../../../pic32mx/lib\libm.a(__strtof.o) (__ldexpf)
c:/program files (x86)/microchip/xc32/v2.15/bin/bin/../../lib/gcc/pic32mx/4.8.3/../../../../pic32mx/lib\libe.a(_fixdfdi.o)
                              c:/program files (x86)/microchip/xc32/v2.15/bin/bin/../../lib/gcc/pic32mx/4.8.3/../../../../pic32mx/lib\libe.a(_fixunsdfdi.o) (__fixdfdi)
c:/program files (x86)/microchip/xc32/v2.15/bin/bin/../../lib/gcc/pic32mx/4.8.3\libgcc.a(_lshrdi3.o)
                              c:/program files (x86)/microchip/xc32/v2.15/bin/bin/../../lib/gcc/pic32mx/4.8.3/../../../../pic32mx/lib\libe.a(_ldexp.o) (__lshrdi3)
c:/program files (x86)/microchip/xc32/v2.15/bin/bin/../../lib/gcc/pic32mx/4.8.3\libgcc.a(_ashldi3.o)
                              c:/program files (x86)/microchip/xc32/v2.15/bin/bin/../../lib/gcc/pic32mx/4.8.3/../../../../pic32mx/lib\libe.a(_ldexp.o) (__ashldi3)
c:/program files (x86)/microchip/xc32/v2.15/bin/bin/../../lib/gcc/pic32mx/4.8.3\libgcc.a(_floatundidf.o)
                              c:/program files (x86)/microchip/xc32/v2.15/bin/bin/../../lib/gcc/pic32mx/4.8.3/../../../../pic32mx/lib\libc.a(doprnt_cdgGnopuxX.eo) (__floatundidf)
c:/program files (x86)/microchip/xc32/v2.15/bin/bin/../../lib/gcc/pic32mx/4.8.3\libgcc.a(_udivdi3.o)
                              c:/program files (x86)/microchip/xc32/v2.15/bin/bin/../../lib/gcc/pic32mx/4.8.3/../../../../pic32mx/lib\libc.a(doprnt_cdgGnopuxX.eo) (__udivdi3)
c:/program files (x86)/microchip/xc32/v2.15/bin/bin/../../lib/gcc/pic32mx/4.8.3\libgcc.a(_umoddi3.o)
                              c:/program files (x86)/microchip/xc32/v2.15/bin/bin/../../lib/gcc/pic32mx/4.8.3/../../../../pic32mx/lib\libc.a(doprnt_cdgGnopuxX.eo) (__umoddi3)
c:/program files (x86)/microchip/xc32/v2.15/bin/bin/../../lib/gcc/pic32mx/4.8.3\libgcc.a(floatunsidf.o)
                              c:/program files (x86)/microchip/xc32/v2.15/bin/bin/../../lib/gcc/pic32mx/4.8.3/../../../../pic32mx/lib\libc.a(doprnt_cdgGnopuxX.eo) (__floatunsidf)
c:/program files (x86)/microchip/xc32/v2.15/bin/bin/../../lib/gcc/pic32mx/4.8.3/../../../../pic32mx/lib\libpic32.a(sbrk.o)
                              c:/program files (x86)/microchip/xc32/v2.15/bin/bin/../../lib/gcc/pic32mx/4.8.3/../../../../pic32mx/lib\libc.a(malloc.o) (sbrk)
c:/program files (x86)/microchip/xc32/v2.15/bin/bin/../../lib/gcc/pic32mx/4.8.3/../../../../pic32mx/lib\libpic32.a(read.o)
                              c:/program files (x86)/microchip/xc32/v2.15/bin/bin/../../lib/gcc/pic32mx/4.8.3/../../../../pic32mx/lib\libc.a(filbuf.o) (read)
c:/program files (x86)/microchip/xc32/v2.15/bin/bin/../../lib/gcc/pic32mx/4.8.3/../../../../pic32mx/lib\libpic32.a(write.o)
                              c:/program files (x86)/microchip/xc32/v2.15/bin/bin/../../lib/gcc/pic32mx/4.8.3/../../../../pic32mx/lib\libc.a(_fputc_simple.o) (write)
c:/program files (x86)/microchip/xc32/v2.15/bin/bin/../../lib/gcc/pic32mx/4.8.3/../../../../pic32mx/lib\libpic32.a(xc32_uart.o)
                              c:/program files (x86)/microchip/xc32/v2.15/bin/bin/../../lib/gcc/pic32mx/4.8.3/../../../../pic32mx/lib\libpic32.a(read.o) (__XC_UART)
c:/program files (x86)/microchip/xc32/v2.15/bin/bin/../../lib/gcc/pic32mx/4.8.3/../../../../pic32mx/lib\libpic32.a(errno.o)
                              c:/program files (x86)/microchip/xc32/v2.15/bin/bin/../../lib/gcc/pic32mx/4.8.3/../../../../pic32mx/lib\libm.a(__strtod.o) (errno)
c:/program files (x86)/microchip/xc32/v2.15/bin/bin/../../lib/gcc/pic32mx/4.8.3/../../../../pic32mx/lib\libpic32.a(_mon_putc.o)
                              c:/program files (x86)/microchip/xc32/v2.15/bin/bin/../../lib/gcc/pic32mx/4.8.3/../../../../pic32mx/lib\libpic32.a(write.o) (_mon_putc)

Allocating common symbols
Common symbol       size              file

pxDelayedTaskList   0x4               build/default/debug/_ext/1128951024/tasks.o
xQueueISR           0x4               build/default/debug/_ext/1688732426/system_init.o
xTimers             0x4               build/default/debug/_ext/1688732426/system_init.o
gDrvUSART3Obj       0x8               build/default/debug/_ext/327000265/drv_usart_static.o
xTimerSending       0x4               build/default/debug/_ext/1688732426/system_init.o
gDrvUSART0Obj       0x8               build/default/debug/_ext/327000265/drv_usart_static.o
sysObj              0x18              build/default/debug/_ext/1688732426/system_init.o
xQueue              0x4               build/default/debug/_ext/1688732426/system_init.o
pxReadyTasksLists   0x64              build/default/debug/_ext/1128951024/tasks.o
TRANSMIT_Queue      0x4               build/default/debug/_ext/1688732426/system_init.o
gDrvUSART2Obj       0x8               build/default/debug/_ext/327000265/drv_usart_static.o
pxOverflowDelayedTaskList
                    0x4               build/default/debug/_ext/1128951024/tasks.o
xPendingReadyList   0x14              build/default/debug/_ext/1128951024/tasks.o
UART_TRANSMIT_Queue
                    0x4               build/default/debug/_ext/1688732426/system_init.o
xQueueTh            0x4               build/default/debug/_ext/1688732426/system_init.o
xTasksWaitingTermination
                    0x14              build/default/debug/_ext/1128951024/tasks.o
irData              0x4               build/default/debug/_ext/1360937237/IR.o
gDrvUSART1Obj       0x8               build/default/debug/_ext/327000265/drv_usart_static.o
distanceData        0x4               build/default/debug/_ext/1360937237/Distance.o
sysDevconObj        0x8               build/default/debug/_ext/340578644/sys_devcon.o
xSuspendedTaskList  0x14              build/default/debug/_ext/1128951024/tasks.o
xQueue2             0x4               build/default/debug/_ext/1688732426/system_init.o
xDelayedTaskList2   0x14              build/default/debug/_ext/1128951024/tasks.o
xDelayedTaskList1   0x14              build/default/debug/_ext/1128951024/tasks.o

Microchip PIC32 Memory-Usage Report

kseg0 Program-Memory Usage
section                    address  length [bytes]      (dec)  Description
-------                 ----------  -------------------------  -----------
.text._vfprintf_cdgGnop 0x9d000000         0x1c44        7236   
.text.body              0x9d001c44          0xd30        3376   
.text._vfscanf_gG       0x9d002974          0xb98        2968   
.text.print_value       0x9d00350c          0x67c        1660   
.text.Tx_Tasks          0x9d003b88          0x4d8        1240   
.text.dp32mul           0x9d004060          0x4b8        1208   
.text                   0x9d004518          0x8bc        2236  App's exec code 
.text                   0x9d004dd4          0x454        1108  App's exec code 
.text.dp32subadd        0x9d005228          0x430        1072   
.text.__strtod          0x9d005658          0x3d0         976   
.dinit                  0x9d005a28          0x380         896   
.text.__strtof          0x9d005da8          0x358         856   
.text.dp32mul           0x9d006100          0x32c         812   
.text.print_string_ptr  0x9d00642c          0x2a8         680   
.text.fpsubadd          0x9d0066d4          0x278         632   
.text.prvTimerTask      0x9d00694c          0x270         624   
.text.scale             0x9d006bbc          0x23c         572   
.text.fp32div           0x9d006df8          0x230         560   
.text.xQueueGenericSend 0x9d007028          0x20c         524   
.text.fround            0x9d007234          0x1cc         460   
.text.xQueueReceive     0x9d007400          0x1c0         448   
.text.fp32mul           0x9d0075c0          0x1bc         444   
.text.SYS_Initialize    0x9d00777c          0x1b8         440   
.DrvAdc_vector_text     0x9d007934          0x1b4         436   
.DrvTmrInstance0_vector 0x9d007ae8          0x1b4         436   
.DrvTmrInstance1_vector 0x9d007c9c          0x1b4         436   
.DrvUsartInstance0_vect 0x9d007e50          0x1b4         436   
.DrvUsartInstance1_vect 0x9d008004          0x1b4         436   
.DrvUsartInstance2_vect 0x9d0081b8          0x1b4         436   
.DrvUsartInstance3_vect 0x9d00836c          0x1b4         436   
.text.pvPortMalloc      0x9d008520          0x1ac         428   
.text.__ldexp           0x9d0086cc          0x1a8         424   
.text.IntHandlerDrvUsar 0x9d008874          0x19c         412   
.text.IntHandlerDrvUsar 0x9d008a10          0x19c         412   
.text.DRV_USART0_Initia 0x9d008bac          0x18c         396   
.text.DRV_USART1_Initia 0x9d008d38          0x18c         396   
.text.DRV_USART2_Initia 0x9d008ec4          0x18c         396   
.text.DRV_USART3_Initia 0x9d009050          0x18c         396   
.text.sendRequest2      0x9d0091dc          0x188         392   
.text.MD5_Final         0x9d009364          0x188         392   
.text._filbuf           0x9d0094ec          0x188         392   
.rodata                 0x9d009674          0x170         368  Read-only const 
.text.print             0x9d0097e4          0x168         360   
.text                   0x9d00994c          0x2d0         720  App's exec code 
.text.xTaskIncrementTic 0x9d009c1c          0x164         356   
.rodata                 0x9d009d80          0x160         352  Read-only const 
.text.read              0x9d009ee0          0x158         344   
.text.ensure            0x9d00a038          0x154         340   
.text.xTaskResumeAll    0x9d00a18c          0x148         328   
.text.fputc             0x9d00a2d4          0x144         324   
.text.IntHandlerDrvUsar 0x9d00a418          0x13c         316   
.text.prvInitialiseNewT 0x9d00a554          0x12c         300   
.text._flsbuf           0x9d00a680          0x12c         300   
.text.dpcmp             0x9d00a7ac          0x12c         300   
.rodata                 0x9d00a8d8          0x128         296  Read-only const 
.text.MD5_Update        0x9d00aa00          0x108         264   
.text.DRV_ADC_Initializ 0x9d00ab08          0x104         260   
.text.prvAddNewTaskToRe 0x9d00ac0c          0x104         260   
.text.prvSampleTimeNow  0x9d00ad10          0x104         260   
.rodata                 0x9d00ae14          0x104         260  Read-only const 
.text.fgetc             0x9d00af18          0x104         260   
.text.__ldexpf          0x9d00b01c          0x104         260   
.text.prvUnlockQueue    0x9d00b120          0x100         256   
.text.dptofp            0x9d00b220          0x100         256   
.text.sendRequest3      0x9d00b320           0xf8         248   
.text.xTaskPriorityDisi 0x9d00b418           0xf8         248   
.rodata                 0x9d00b510           0xf8         248  Read-only const 
.text.prvCopyDataToQueu 0x9d00b608           0xf4         244   
.text.xQueueGenericSend 0x9d00b6fc           0xf0         240   
.text.APP_Tasks         0x9d00b7ec           0xe8         232   
.text.__fixdfdi         0x9d00b8d4           0xe8         232   
.text.add_item_to_objec 0x9d00b9bc           0xe4         228   
.text.prvAddCurrentTask 0x9d00baa0           0xe4         228   
.text.SYS_DEVCON_Perfor 0x9d00bb84           0xe0         224   
.text.SYS_Tasks         0x9d00bc64           0xe0         224   
.text.xQueueReceiveFrom 0x9d00bd44           0xe0         224   
.text.vTaskSwitchContex 0x9d00be24           0xe0         224   
.text.general_exception 0x9d00bf04           0xdc         220   
.text._mon_putc         0x9d00bfe0           0xd4         212   
.text.cJSON_Delete      0x9d00c0b4           0xc0         192   
.text.xQueueGenericRese 0x9d00c174           0xc0         192   
.text.xTaskCreate       0x9d00c234           0xc0         192   
.text.xTaskRemoveFromEv 0x9d00c2f4           0xbc         188   
.text.IntHandlerDrvAdc  0x9d00c3b0           0xb4         180   
.text.fptodp            0x9d00c464           0xac         172   
.text.IR_Tasks          0x9d00c510           0xa8         168   
.text                   0x9d00c5b8           0xa8         168  App's exec code 
.text.range             0x9d00c660           0xa8         168   
.text.atoi              0x9d00c708           0xa8         168   
.text.libm              0x9d00c7b0           0xa8         168   
.text.xTaskCheckForTime 0x9d00c858           0xa4         164   
.text.SYS_PORTS_Initial 0x9d00c8fc           0xa0         160   
.text.fflush            0x9d00c99c           0xa0         160   
.text.cJSON_CreateNumbe 0x9d00ca3c           0x9c         156   
.text.fpcmp             0x9d00cad8           0x9c         156   
.text.write             0x9d00cb74           0x9c         156   
.text.xQueueGenericCrea 0x9d00cc10           0x94         148   
.text.xTimerGenericComm 0x9d00cca4           0x94         148   
.text.prvInitialiseTask 0x9d00cd38           0x90         144   
.text.vQueueWaitForMess 0x9d00cdc8           0x8c         140   
.text.vTaskStartSchedul 0x9d00ce54           0x8c         140   
.text.dptoul            0x9d00cee0           0x8c         140   
.text.__orderdf2        0x9d00cf6c           0x8c         140   
.text.xTimerCreate      0x9d00cff8           0x88         136   
.text.DRV_USART_Initial 0x9d00d080           0x84         132   
.text                   0x9d00d104           0x84         132  App's exec code 
.text.prvCheckTasksWait 0x9d00d188           0x80         128   
.text.fptoli            0x9d00d208           0x80         128   
.text.__fixunsdfdi      0x9d00d288           0x80         128   
.text.DRV_TMR0_Initiali 0x9d00d308           0x7c         124   
.text.prvInsertBlockInt 0x9d00d384           0x7c         124   
.text.DISTANCE_Tasks    0x9d00d400           0x78         120   
.text.litodp            0x9d00d478           0x78         120   
.text.DRV_TMR1_Initiali 0x9d00d4f0           0x74         116   
.text.DRV_USART_TasksTr 0x9d00d564           0x74         116   
.text.DRV_USART_TasksRe 0x9d00d5d8           0x74         116   
.text.DRV_USART_TasksEr 0x9d00d64c           0x74         116   
.text.cJSON_strdup      0x9d00d6c0           0x74         116   
.text.cJSON_AddNumberTo 0x9d00d734           0x74         116   
.text.cJSON_CreateStrin 0x9d00d7a8           0x74         116   
.text.cJSON_AddStringTo 0x9d00d81c           0x74         116   
.text.vPortFree         0x9d00d890           0x74         116   
.text.prvInsertTimerInA 0x9d00d904           0x74         116   
.text.prvCheckForValidL 0x9d00d978           0x74         116   
.text.ungetc            0x9d00d9ec           0x74         116   
.text.vApplicationSetup 0x9d00da60           0x6c         108   
.text._sprintf_cdgGnopu 0x9d00dacc           0x68         104   
.text                   0x9d00db34           0x64         100  App's exec code 
.text.vListInsert       0x9d00db98           0x60          96   
.text.vTaskExitCritical 0x9d00dbf8           0x60          96   
.text.wspace            0x9d00dc58           0x60          96   
.text.sitofp            0x9d00dcb8           0x60          96   
.text.xPortStartSchedul 0x9d00dd18           0x5c          92   
.text.xTimerCreateTimer 0x9d00dd74           0x5c          92   
.text.SYS_DEVCON_System 0x9d00ddd0           0x58          88   
.text.MD5               0x9d00de28           0x58          88   
.text.add_item_to_array 0x9d00de80           0x58          88   
.text.xQueueCreateMutex 0x9d00ded8           0x58          88   
.text.vTaskDelay        0x9d00df30           0x58          88   
.text.SYS_INT_SourceDis 0x9d00df88           0x54          84   
.text.pxPortInitialiseS 0x9d00dfdc           0x54          84   
.text.vPortIncrementTic 0x9d00e030           0x54          84   
.text.main_entry        0x9d00e084           0x54          84   
.text._sscanf_gG        0x9d00e0d8           0x54          84   
.text.int_to_int        0x9d00e12c           0x50          80   
.text.prvCopyDataFromQu 0x9d00e17c           0x50          80   
.text.DRV_USART1_TasksT 0x9d00e1cc           0x4c          76   
.text.DRV_USART2_TasksT 0x9d00e218           0x4c          76   
.text.DRV_USART3_TasksT 0x9d00e264           0x4c          76   
.text.vTimerCallback    0x9d00e2b0           0x4c          76   
.text.IR_Initialize     0x9d00e2fc           0x4c          76   
.text.update_offset     0x9d00e348           0x4c          76   
.rodata                 0x9d00e394           0x4c          76  Read-only const 
.text.uxListRemove      0x9d00e3e0           0x4c          76   
.text                   0x9d00e42c           0x4c          76  App's exec code 
.text.DRV_USART0_TasksT 0x9d00e478           0x48          72   
.text.SYS_DEVCON_System 0x9d00e4c0           0x48          72   
.text.APP_Initialize    0x9d00e508           0x48          72   
.text.vTaskEnterCritica 0x9d00e550           0x48          72   
.text.vTaskPlaceOnEvent 0x9d00e598           0x48          72   
.text._bootstrap_except 0x9d00e5e0           0x48          72   
.vector_default         0x9d00e628           0x48          72   
.rodata                 0x9d00e670           0x48          72  Read-only const 
.text.SYS_CLK_Initializ 0x9d00e6b8           0x44          68   
.text._general_exceptio 0x9d00e6fc           0x44          68   
.rodata                 0x9d00e740           0x44          68  Read-only const 
.text.cJSON_New_Item    0x9d00e784           0x44          68   
.text                   0x9d00e7c8           0x44          68  App's exec code 
.text.strcat            0x9d00e80c           0x44          68   
.text                   0x9d00e850           0x44          68  App's exec code 
.text.prvIdleTask       0x9d00e894           0x40          64   
.text                   0x9d00e8d4           0x80         128  App's exec code 
.text.IntHandlerDrvUsar 0x9d00e954           0x3c          60   
.text.MD5_Init          0x9d00e990           0x3c          60   
.text.OSAL_MUTEX_Create 0x9d00e9cc           0x3c          60   
.text.uxPortSetInterrup 0x9d00ea08           0x3c          60   
.text.prvResetNextTaskU 0x9d00ea44           0x38          56   
.text.vTaskPlaceOnEvent 0x9d00ea7c           0x38          56   
.text.SendMessageFromAD 0x9d00eab4           0x34          52   
.text.SendMessageFromIS 0x9d00eae8           0x34          52   
.text.vListInsertEnd    0x9d00eb1c           0x34          52   
.text.prvIsQueueEmpty   0x9d00eb50           0x34          52   
.text.DRV_USART1_TasksR 0x9d00eb84           0x30          48   
.text.DRV_USART1_TasksE 0x9d00ebb4           0x30          48   
.text.DRV_USART2_TasksR 0x9d00ebe4           0x30          48   
.text.DRV_USART2_TasksE 0x9d00ec14           0x30          48   
.text.DRV_USART3_TasksR 0x9d00ec44           0x30          48   
.text.DRV_USART3_TasksE 0x9d00ec74           0x30          48   
.text.SendMessageFromTi 0x9d00eca4           0x30          48   
.text.SendMessageFromUS 0x9d00ecd4           0x30          48   
.text.prvDeleteTCB      0x9d00ed04           0x30          48   
.text.DRV_USART0_TasksR 0x9d00ed34           0x2c          44   
.text.DRV_USART0_TasksE 0x9d00ed60           0x2c          44   
.text.vTimerCallbackSen 0x9d00ed8c           0x2c          44   
.text.dbgUARTVal2       0x9d00edb8           0x2c          44   
.rodata                 0x9d00ede4           0x2c          44  Read-only const 
.text.cJSON_CreateObjec 0x9d00ee10           0x2c          44   
.text.ReceiveUART_TRANS 0x9d00ee3c           0x2c          44   
.text.ReceiveMessageIR  0x9d00ee68           0x2c          44   
.text.ReceiveMessageUS  0x9d00ee94           0x2c          44   
.text.ReceiveMessage    0x9d00eec0           0x2c          44   
.text.SendUART_TRANSMIT 0x9d00eeec           0x28          40   
.text.SendTransmit_Mess 0x9d00ef14           0x28          40   
.text.strtod            0x9d00ef3c           0x28          40   
.text.vApplicationStack 0x9d00ef64           0x24          36   
.text.vApplicationMallo 0x9d00ef88           0x24          36   
.text.dbgOutputVal      0x9d00efac           0x24          36   
.text.cJSON_PrintUnform 0x9d00efd0           0x24          36   
.text.createUART_TRANSM 0x9d00eff4           0x24          36   
.text.createTransmit_Qu 0x9d00f018           0x24          36   
.text.createMessageQIR  0x9d00f03c           0x24          36   
.text.createMessageQISR 0x9d00f060           0x24          36   
.text.createMessageQThr 0x9d00f084           0x24          36   
.text.createMessageQ    0x9d00f0a8           0x24          36   
.text.ReceiveTransmit_M 0x9d00f0cc           0x24          36   
.text.prvTaskExitError  0x9d00f0f0           0x24          36   
.text.vListInitialise   0x9d00f114           0x24          36   
.text.tolower           0x9d00f138           0x24          36   
.text.DRV_ADC_Open      0x9d00f15c           0x20          32   
.text.main              0x9d00f17c           0x20          32   
.text.xTaskGetScheduler 0x9d00f19c           0x20          32   
.text.IntHandlerDrvTmrI 0x9d00f1bc           0x1c          28   
.text.IntHandlerDrvTmrI 0x9d00f1d8           0x1c          28   
.text.CreateJSON_Object 0x9d00f1f4           0x1c          28   
.text.addStringToJSON   0x9d00f210           0x1c          28   
.text.addNumberToJSON   0x9d00f22c           0x1c          28   
.text.vPortClearInterru 0x9d00f248           0x1c          28   
.text.strtof            0x9d00f264           0x1c          28   
.text.negdf2            0x9d00f280           0x1c          28   
.text.DRV_ADC_Start     0x9d00f29c           0x18          24   
.text.SYS_DEVCON_JTAGDi 0x9d00f2b4           0x18          24   
.text._TxThread_Tasks   0x9d00f2cc           0x18          24   
.text._IR_Tasks         0x9d00f2e4           0x18          24   
.text._DISTANCE_Tasks   0x9d00f2fc           0x18          24   
.text._APP_Tasks        0x9d00f314           0x18          24   
.text._SYS_Tasks        0x9d00f32c           0x18          24   
.text                   0x9d00f344           0x18          24  App's exec code 
.rodata                 0x9d00f35c           0x18          24  Read-only const 
.text.SYS_DEVCON_Initia 0x9d00f374           0x14          20   
.text.SYS_INT_Initializ 0x9d00f388           0x14          20   
.text.vTaskSuspendAll   0x9d00f39c           0x14          20   
.text.vTaskInternalSetT 0x9d00f3b0           0x14          20   
.text.negsf2            0x9d00f3c4           0x14          20   
.rodata                 0x9d00f3d8           0x10          16  Read-only const 
.text.dbgOutputLoc      0x9d00f3e8           0x10          16   
.text.vTaskMissedYield  0x9d00f3f8           0x10          16   
.text.__exception_handl 0x9d00f408            0xc          12   
.text.SYS_CLK_SystemFre 0x9d00f414            0xc          12   
.text.SYS_CLK_Periphera 0x9d00f420            0xc          12   
.text.xTaskGetTickCount 0x9d00f42c            0xc          12   
.text.DISTANCE_Initiali 0x9d00f438            0x8           8   
.rodata                 0x9d00f440            0x8           8  Read-only const 
.text.vListInitialiseIt 0x9d00f448            0x8           8   
.rodata                 0x9d00f450           0x10          16  Read-only const 
.text._on_reset         0x9d00f460            0x8           8   
.text._on_bootstrap     0x9d00f468            0x8           8   
.rodata                 0x9d00f470           0x10          16  Read-only const 
.rodata                 0x9d00f480            0x4           4  Read-only const 
      Total kseg0_program_mem used  :      0xf484       62596  11.9% of 0x80000

kseg0 Boot-Memory Usage
section                    address  length [bytes]      (dec)  Description
-------                 ----------  -------------------------  -----------
         Total kseg0_boot_mem used  :           0           0  <1% of 0x970

Exception-Memory Usage 
section                    address  length [bytes]      (dec)  Description
-------                 ----------  -------------------------  -----------
.app_excpt              0x9fc01180           0x10          16  General-Exception 
.vector_0               0x9fc01200            0x8           8  Interrupt Vector 0 
.vector_1               0x9fc01220            0x8           8  Interrupt Vector 1 
.vector_2               0x9fc01240            0x8           8  Interrupt Vector 2 
.vector_3               0x9fc01260            0x8           8  Interrupt Vector 3 
.vector_4               0x9fc01280            0x8           8  Interrupt Vector 4 
.vector_5               0x9fc012a0            0x8           8  Interrupt Vector 5 
.vector_6               0x9fc012c0            0x8           8  Interrupt Vector 6 
.vector_7               0x9fc012e0            0x8           8  Interrupt Vector 7 
.vector_8               0x9fc01300           0x10          16  Interrupt Vector 8 
.vector_9               0x9fc01320            0x8           8  Interrupt Vector 9 
.vector_10              0x9fc01340            0x8           8  Interrupt Vector 10 
.vector_11              0x9fc01360            0x8           8  Interrupt Vector 11 
.vector_12              0x9fc01380           0x10          16  Interrupt Vector 12 
.vector_13              0x9fc013a0            0x8           8  Interrupt Vector 13 
.vector_14              0x9fc013c0            0x8           8  Interrupt Vector 14 
.vector_15              0x9fc013e0            0x8           8  Interrupt Vector 15 
.vector_16              0x9fc01400            0x8           8  Interrupt Vector 16 
.vector_17              0x9fc01420            0x8           8  Interrupt Vector 17 
.vector_18              0x9fc01440            0x8           8  Interrupt Vector 18 
.vector_19              0x9fc01460            0x8           8  Interrupt Vector 19 
.vector_20              0x9fc01480            0x8           8  Interrupt Vector 20 
.vector_21              0x9fc014a0            0x8           8  Interrupt Vector 21 
.vector_22              0x9fc014c0            0x8           8  Interrupt Vector 22 
.vector_23              0x9fc014e0            0x8           8  Interrupt Vector 23 
.vector_24              0x9fc01500           0x10          16  Interrupt Vector 24 
.vector_25              0x9fc01520            0x8           8  Interrupt Vector 25 
.vector_26              0x9fc01540            0x8           8  Interrupt Vector 26 
.vector_27              0x9fc01560           0x10          16  Interrupt Vector 27 
.vector_28              0x9fc01580            0x8           8  Interrupt Vector 28 
.vector_29              0x9fc015a0            0x8           8  Interrupt Vector 29 
.vector_30              0x9fc015c0            0x8           8  Interrupt Vector 30 
.vector_31              0x9fc015e0           0x10          16  Interrupt Vector 31 
.vector_32              0x9fc01600           0x10          16  Interrupt Vector 32 
.vector_33              0x9fc01620            0x8           8  Interrupt Vector 33 
.vector_34              0x9fc01640            0x8           8  Interrupt Vector 34 
.vector_35              0x9fc01660            0x8           8  Interrupt Vector 35 
.vector_36              0x9fc01680            0x8           8  Interrupt Vector 36 
.vector_37              0x9fc016a0            0x8           8  Interrupt Vector 37 
.vector_38              0x9fc016c0            0x8           8  Interrupt Vector 38 
.vector_39              0x9fc016e0            0x8           8  Interrupt Vector 39 
.vector_40              0x9fc01700            0x8           8  Interrupt Vector 40 
.vector_41              0x9fc01720            0x8           8  Interrupt Vector 41 
.vector_42              0x9fc01740            0x8           8  Interrupt Vector 42 
.vector_43              0x9fc01760            0x8           8  Interrupt Vector 43 
.vector_44              0x9fc01780            0x8           8  Interrupt Vector 44 
.vector_45              0x9fc017a0            0x8           8  Interrupt Vector 45 
.vector_46              0x9fc017c0            0x8           8  Interrupt Vector 46 
.vector_47              0x9fc017e0            0x8           8  Interrupt Vector 47 
.vector_48              0x9fc01800            0x8           8  Interrupt Vector 48 
.vector_49              0x9fc01820           0x10          16  Interrupt Vector 49 
.vector_50              0x9fc01840            0x8           8  Interrupt Vector 50 
.vector_51              0x9fc01860            0x8           8  Interrupt Vector 51 
          Total exception_mem used  :       0x1e8         488  11.9% of 0x1000

kseg1 Boot-Memory Usage
section                    address  length [bytes]      (dec)  Description
-------                 ----------  -------------------------  -----------
.reset                  0xbfc00000          0x1a8         424  Reset handler 
.bev_excpt              0xbfc00380           0x10          16  BEV-Exception 
         Total kseg1_boot_mem used  :       0x1b8         440  37.7% of 0x490
        --------------------------------------------------------------------------
         Total Program Memory used  :      0xf824       63524  11.9% of 0x81e00
        --------------------------------------------------------------------------


kseg0 Data-Memory Usage
section                    address  length [bytes]      (dec)  Description
-------                 ----------  -------------------------  -----------
reserve_data_0_kseg0    0x80000000          0x200         512   
         Total kseg0_data_mem used  :       0x200         512  100.0% of 0x200

kseg1 Data-Memory Usage
section                    address  length [bytes]      (dec)  Description
-------                 ----------  -------------------------  -----------
reserve_data_0_kseg1    0xa0000000          0x200         512   
.sdata                  0xa0000200            0x8           8  Small init data 
.sbss                   0xa0000208          0x100         256  Small uninit data 
.bss                    0xa0000308           0xe0         224  Uninitialized data 
.bss                    0xa00003e8         0xa640       42560  Uninitialized data 
.bss                    0xa000aa28          0x400        1024  Uninitialized data 
.data                   0xa000ae28          0x1a4         420  Initialized data 
.data                   0xa000afcc           0x80         128  Initialized data 
.bss                    0xa000b04c           0x6c         108  Uninitialized data 
.data                   0xa000b0b8            0xc          12  Initialized data 
.bss                    0xa000b0c4            0x4           4  Uninitialized data 
.bss.errno              0xa000b0c8            0x4           4   
         Total kseg1_data_mem used  :      0xb0cc       45260  34.5% of 0x20000
        --------------------------------------------------------------------------
            Total Data Memory used  :      0xb2cc       45772  34.8% of 0x20200
        --------------------------------------------------------------------------


Dynamic Data-Memory Reservation
section                    address  length [bytes]      (dec)  Description
-------                 ----------  -------------------------  -----------
heap                    0xa000b0d0              0           0  Reserved for heap 
stack                   0xa000b0e8        0x14f08       85768  Reserved for stack 

        --------------------------------------------------------------------------

Discarded input sections

 .text          0x00000000        0x0 c:/program files (x86)/microchip/xc32/v2.15/bin/bin/../../lib/gcc/pic32mx/4.8.3/../../../../pic32mx/lib\software-debug-break.o
 .data          0x00000000        0x0 c:/program files (x86)/microchip/xc32/v2.15/bin/bin/../../lib/gcc/pic32mx/4.8.3/../../../../pic32mx/lib\software-debug-break.o
 .bss           0x00000000        0x0 c:/program files (x86)/microchip/xc32/v2.15/bin/bin/../../lib/gcc/pic32mx/4.8.3/../../../../pic32mx/lib\software-debug-break.o
 .text          0x00000000        0x0 build/default/debug/_ext/1361460060/drv_adc_static.o
 .data          0x00000000        0x0 build/default/debug/_ext/1361460060/drv_adc_static.o
 .bss           0x00000000        0x0 build/default/debug/_ext/1361460060/drv_adc_static.o
 .reginfo       0x00000000       0x18 build/default/debug/_ext/1361460060/drv_adc_static.o
 .text.DRV_ADC_DeInitialize
                0x00000000       0x1c build/default/debug/_ext/1361460060/drv_adc_static.o
 .text.DRV_ADC_Close
                0x00000000       0x1c build/default/debug/_ext/1361460060/drv_adc_static.o
 .text.DRV_ADC_Stop
                0x00000000       0x18 build/default/debug/_ext/1361460060/drv_adc_static.o
 .text.DRV_ADC_NegativeInputSelect
                0x00000000       0x3c build/default/debug/_ext/1361460060/drv_adc_static.o
 .text.DRV_ADC_PositiveInputSelect
                0x00000000       0x3c build/default/debug/_ext/1361460060/drv_adc_static.o
 .text.DRV_ADC_ChannelScanInputsAdd
                0x00000000       0x1c build/default/debug/_ext/1361460060/drv_adc_static.o
 .text.DRV_ADC_ChannelScanInputsRemove
                0x00000000       0x14 build/default/debug/_ext/1361460060/drv_adc_static.o
 .text.DRV_ADC_SamplesRead
                0x00000000       0x20 build/default/debug/_ext/1361460060/drv_adc_static.o
 .text.DRV_ADC_SamplesAvailable
                0x00000000       0x14 build/default/debug/_ext/1361460060/drv_adc_static.o
 .text          0x00000000        0x0 build/default/debug/_ext/1407244131/drv_tmr_static.o
 .data          0x00000000        0x0 build/default/debug/_ext/1407244131/drv_tmr_static.o
 .bss           0x00000000        0x0 build/default/debug/_ext/1407244131/drv_tmr_static.o
 .reginfo       0x00000000       0x18 build/default/debug/_ext/1407244131/drv_tmr_static.o
 .text.DRV_TMR0_Start
                0x00000000       0x3c build/default/debug/_ext/1407244131/drv_tmr_static.o
 .text.DRV_TMR0_Stop
                0x00000000       0x40 build/default/debug/_ext/1407244131/drv_tmr_static.o
 .text.DRV_TMR0_ClientStatus
                0x00000000       0x14 build/default/debug/_ext/1407244131/drv_tmr_static.o
 .text.DRV_TMR0_CounterValueSet
                0x00000000       0x14 build/default/debug/_ext/1407244131/drv_tmr_static.o
 .text.DRV_TMR0_CounterValueGet
                0x00000000       0x14 build/default/debug/_ext/1407244131/drv_tmr_static.o
 .text.DRV_TMR0_CounterClear
                0x00000000       0x10 build/default/debug/_ext/1407244131/drv_tmr_static.o
 .text.DRV_TMR0_DividerRangeGet
                0x00000000       0x2c build/default/debug/_ext/1407244131/drv_tmr_static.o
 .text.DRV_TMR0_CounterFrequencyGet
                0x00000000       0x4c build/default/debug/_ext/1407244131/drv_tmr_static.o
 .text.DRV_TMR0_PrescalerGet
                0x00000000       0xa4 build/default/debug/_ext/1407244131/drv_tmr_static.o
 .text.DRV_TMR0_PeriodValueSet
                0x00000000       0x14 build/default/debug/_ext/1407244131/drv_tmr_static.o
 .text.DRV_TMR0_PeriodValueGet
                0x00000000       0x14 build/default/debug/_ext/1407244131/drv_tmr_static.o
 .text.DRV_TMR0_StopInIdleDisable
                0x00000000       0x14 build/default/debug/_ext/1407244131/drv_tmr_static.o
 .text.DRV_TMR0_StopInIdleEnable
                0x00000000       0x14 build/default/debug/_ext/1407244131/drv_tmr_static.o
 .text.DRV_TMR0_ClockSet
                0x00000000       0xc4 build/default/debug/_ext/1407244131/drv_tmr_static.o
 .text.DRV_TMR1_Start
                0x00000000       0x3c build/default/debug/_ext/1407244131/drv_tmr_static.o
 .text.DRV_TMR1_Stop
                0x00000000       0x40 build/default/debug/_ext/1407244131/drv_tmr_static.o
 .text.DRV_TMR1_ClientStatus
                0x00000000       0x14 build/default/debug/_ext/1407244131/drv_tmr_static.o
 .text.DRV_TMR1_CounterValueSet
                0x00000000       0x14 build/default/debug/_ext/1407244131/drv_tmr_static.o
 .text.DRV_TMR1_CounterValueGet
                0x00000000       0x14 build/default/debug/_ext/1407244131/drv_tmr_static.o
 .text.DRV_TMR1_CounterClear
                0x00000000       0x10 build/default/debug/_ext/1407244131/drv_tmr_static.o
 .text.DRV_TMR1_DividerRangeGet
                0x00000000       0x2c build/default/debug/_ext/1407244131/drv_tmr_static.o
 .text.DRV_TMR1_CounterFrequencyGet
                0x00000000       0x4c build/default/debug/_ext/1407244131/drv_tmr_static.o
 .text.DRV_TMR1_PrescalerGet
                0x00000000       0xa4 build/default/debug/_ext/1407244131/drv_tmr_static.o
 .text.DRV_TMR1_PeriodValueSet
                0x00000000       0x14 build/default/debug/_ext/1407244131/drv_tmr_static.o
 .text.DRV_TMR1_PeriodValueGet
                0x00000000       0x14 build/default/debug/_ext/1407244131/drv_tmr_static.o
 .text.DRV_TMR1_StopInIdleDisable
                0x00000000       0x14 build/default/debug/_ext/1407244131/drv_tmr_static.o
 .text.DRV_TMR1_StopInIdleEnable
                0x00000000       0x14 build/default/debug/_ext/1407244131/drv_tmr_static.o
 .text.DRV_TMR1_ClockSet
                0x00000000       0xc4 build/default/debug/_ext/1407244131/drv_tmr_static.o
 .text          0x00000000        0x0 build/default/debug/_ext/1407244131/drv_tmr_mapping.o
 .data          0x00000000        0x0 build/default/debug/_ext/1407244131/drv_tmr_mapping.o
 .bss           0x00000000        0x0 build/default/debug/_ext/1407244131/drv_tmr_mapping.o
 .reginfo       0x00000000       0x18 build/default/debug/_ext/1407244131/drv_tmr_mapping.o
 .text.DRV_TMR_Initialize
                0x00000000       0x48 build/default/debug/_ext/1407244131/drv_tmr_mapping.o
 .text.DRV_TMR_Deinitialize
                0x00000000       0x44 build/default/debug/_ext/1407244131/drv_tmr_mapping.o
 .text.DRV_TMR_Status
                0x00000000        0x8 build/default/debug/_ext/1407244131/drv_tmr_mapping.o
 .text.DRV_TMR_Tasks
                0x00000000        0x8 build/default/debug/_ext/1407244131/drv_tmr_mapping.o
 .text.DRV_TMR_Open
                0x00000000        0xc build/default/debug/_ext/1407244131/drv_tmr_mapping.o
 .text.DRV_TMR_Close
                0x00000000       0x44 build/default/debug/_ext/1407244131/drv_tmr_mapping.o
 .text.DRV_TMR_ClientStatus
                0x00000000       0x4c build/default/debug/_ext/1407244131/drv_tmr_mapping.o
 .text.DRV_TMR_CounterValueSet
                0x00000000       0x44 build/default/debug/_ext/1407244131/drv_tmr_mapping.o
 .text.DRV_TMR_CounterValueGet
                0x00000000       0x4c build/default/debug/_ext/1407244131/drv_tmr_mapping.o
 .text.DRV_TMR_CounterClear
                0x00000000       0x44 build/default/debug/_ext/1407244131/drv_tmr_mapping.o
 .text.DRV_TMR_AlarmRegister
                0x00000000        0x8 build/default/debug/_ext/1407244131/drv_tmr_mapping.o
 .text.DRV_TMR_AlarmDisable
                0x00000000        0x8 build/default/debug/_ext/1407244131/drv_tmr_mapping.o
 .text.DRV_TMR_AlarmEnable
                0x00000000        0x8 build/default/debug/_ext/1407244131/drv_tmr_mapping.o
 .text.DRV_TMR_AlarmPeriodSet
                0x00000000        0x8 build/default/debug/_ext/1407244131/drv_tmr_mapping.o
 .text.DRV_TMR_AlarmPeriodGet
                0x00000000        0x8 build/default/debug/_ext/1407244131/drv_tmr_mapping.o
 .text.DRV_TMR_AlarmDeregister
                0x00000000        0x8 build/default/debug/_ext/1407244131/drv_tmr_mapping.o
 .text.DRV_TMR_Start
                0x00000000       0x4c build/default/debug/_ext/1407244131/drv_tmr_mapping.o
 .text.DRV_TMR_Stop
                0x00000000       0x44 build/default/debug/_ext/1407244131/drv_tmr_mapping.o
 .text.DRV_TMR_AlarmHasElapsed
                0x00000000        0x8 build/default/debug/_ext/1407244131/drv_tmr_mapping.o
 .text.DRV_TMR_OperationModeGet
                0x00000000        0x8 build/default/debug/_ext/1407244131/drv_tmr_mapping.o
 .text.DRV_TMR_ClockSet
                0x00000000       0x50 build/default/debug/_ext/1407244131/drv_tmr_mapping.o
 .text.DRV_TMR_PrescalerGet
                0x00000000       0x4c build/default/debug/_ext/1407244131/drv_tmr_mapping.o
 .text.DRV_TMR_GateModeSet
                0x00000000        0x8 build/default/debug/_ext/1407244131/drv_tmr_mapping.o
 .text.DRV_TMR_GateModeClear
                0x00000000        0x8 build/default/debug/_ext/1407244131/drv_tmr_mapping.o
 .text.DRV_TMR_CounterFrequencyGet
                0x00000000       0x4c build/default/debug/_ext/1407244131/drv_tmr_mapping.o
 .text.DRV_TMR_DividerRangeGet
                0x00000000       0x4c build/default/debug/_ext/1407244131/drv_tmr_mapping.o
 .text          0x00000000        0x0 build/default/debug/_ext/327000265/drv_usart_mapping.o
 .data          0x00000000        0x0 build/default/debug/_ext/327000265/drv_usart_mapping.o
 .bss           0x00000000        0x0 build/default/debug/_ext/327000265/drv_usart_mapping.o
 .reginfo       0x00000000       0x18 build/default/debug/_ext/327000265/drv_usart_mapping.o
 .text.DRV_USART_Deinitialize
                0x00000000       0x74 build/default/debug/_ext/327000265/drv_usart_mapping.o
 .text.DRV_USART_Status
                0x00000000       0x84 build/default/debug/_ext/327000265/drv_usart_mapping.o
 .text.DRV_USART_Open
                0x00000000       0x84 build/default/debug/_ext/327000265/drv_usart_mapping.o
 .text.DRV_USART_Close
                0x00000000       0x78 build/default/debug/_ext/327000265/drv_usart_mapping.o
 .text.DRV_USART_ClientStatus
                0x00000000       0x88 build/default/debug/_ext/327000265/drv_usart_mapping.o
 .text.DRV_USART_TransferStatus
                0x00000000       0x88 build/default/debug/_ext/327000265/drv_usart_mapping.o
 .text.DRV_USART_ErrorGet
                0x00000000       0x88 build/default/debug/_ext/327000265/drv_usart_mapping.o
 .text.DRV_USART_ReadByte
                0x00000000       0x88 build/default/debug/_ext/327000265/drv_usart_mapping.o
 .text.DRV_USART_WriteByte
                0x00000000       0x78 build/default/debug/_ext/327000265/drv_usart_mapping.o
 .text.DRV_USART_ReceiverBufferSizeGet
                0x00000000       0x88 build/default/debug/_ext/327000265/drv_usart_mapping.o
 .text.DRV_USART_TransmitBufferSizeGet
                0x00000000       0x88 build/default/debug/_ext/327000265/drv_usart_mapping.o
 .text.DRV_USART_ReceiverBufferIsEmpty
                0x00000000       0x88 build/default/debug/_ext/327000265/drv_usart_mapping.o
 .text.DRV_USART_TransmitBufferIsFull
                0x00000000       0x88 build/default/debug/_ext/327000265/drv_usart_mapping.o
 .text.DRV_USART_BaudSet
                0x00000000       0x80 build/default/debug/_ext/327000265/drv_usart_mapping.o
 .text.DRV_USART_LineControlSet
                0x00000000       0x80 build/default/debug/_ext/327000265/drv_usart_mapping.o
 .text          0x00000000        0x0 build/default/debug/_ext/327000265/drv_usart_static.o
 .data          0x00000000        0x0 build/default/debug/_ext/327000265/drv_usart_static.o
 .bss           0x00000000        0x0 build/default/debug/_ext/327000265/drv_usart_static.o
 .reginfo       0x00000000       0x18 build/default/debug/_ext/327000265/drv_usart_static.o
 .text.DRV_USART0_Deinitialize
                0x00000000       0x4c build/default/debug/_ext/327000265/drv_usart_static.o
 .text.DRV_USART0_Status
                0x00000000        0x8 build/default/debug/_ext/327000265/drv_usart_static.o
 .text.DRV_USART0_Open
                0x00000000        0x8 build/default/debug/_ext/327000265/drv_usart_static.o
 .text.DRV_USART0_Close
                0x00000000        0x8 build/default/debug/_ext/327000265/drv_usart_static.o
 .text.DRV_USART0_ClientStatus
                0x00000000        0x8 build/default/debug/_ext/327000265/drv_usart_static.o
 .text.DRV_USART0_TransferStatus
                0x00000000       0x48 build/default/debug/_ext/327000265/drv_usart_static.o
 .text.DRV_USART0_ErrorGet
                0x00000000       0x10 build/default/debug/_ext/327000265/drv_usart_static.o
 .text._DRV_USART0_ErrorConditionClear
                0x00000000       0x88 build/default/debug/_ext/327000265/drv_usart_static.o
 .text.DRV_USART0_BaudSet
                0x00000000       0xf0 build/default/debug/_ext/327000265/drv_usart_static.o
 .text.DRV_USART0_LineControlSet
                0x00000000       0x74 build/default/debug/_ext/327000265/drv_usart_static.o
 .text.DRV_USART1_Deinitialize
                0x00000000       0x4c build/default/debug/_ext/327000265/drv_usart_static.o
 .text.DRV_USART1_Status
                0x00000000        0x8 build/default/debug/_ext/327000265/drv_usart_static.o
 .text.DRV_USART1_Open
                0x00000000        0x8 build/default/debug/_ext/327000265/drv_usart_static.o
 .text.DRV_USART1_Close
                0x00000000        0x8 build/default/debug/_ext/327000265/drv_usart_static.o
 .text.DRV_USART1_ClientStatus
                0x00000000        0x8 build/default/debug/_ext/327000265/drv_usart_static.o
 .text.DRV_USART1_TransferStatus
                0x00000000       0x48 build/default/debug/_ext/327000265/drv_usart_static.o
 .text.DRV_USART1_ErrorGet
                0x00000000       0x10 build/default/debug/_ext/327000265/drv_usart_static.o
 .text._DRV_USART1_ErrorConditionClear
                0x00000000       0x88 build/default/debug/_ext/327000265/drv_usart_static.o
 .text.DRV_USART1_BaudSet
                0x00000000       0xf0 build/default/debug/_ext/327000265/drv_usart_static.o
 .text.DRV_USART1_LineControlSet
                0x00000000       0x74 build/default/debug/_ext/327000265/drv_usart_static.o
 .text.DRV_USART2_Deinitialize
                0x00000000       0x4c build/default/debug/_ext/327000265/drv_usart_static.o
 .text.DRV_USART2_Status
                0x00000000        0x8 build/default/debug/_ext/327000265/drv_usart_static.o
 .text.DRV_USART2_Open
                0x00000000        0x8 build/default/debug/_ext/327000265/drv_usart_static.o
 .text.DRV_USART2_Close
                0x00000000        0x8 build/default/debug/_ext/327000265/drv_usart_static.o
 .text.DRV_USART2_ClientStatus
                0x00000000        0x8 build/default/debug/_ext/327000265/drv_usart_static.o
 .text.DRV_USART2_TransferStatus
                0x00000000       0x48 build/default/debug/_ext/327000265/drv_usart_static.o
 .text.DRV_USART2_ErrorGet
                0x00000000       0x10 build/default/debug/_ext/327000265/drv_usart_static.o
 .text._DRV_USART2_ErrorConditionClear
                0x00000000       0x88 build/default/debug/_ext/327000265/drv_usart_static.o
 .text.DRV_USART2_BaudSet
                0x00000000       0xf0 build/default/debug/_ext/327000265/drv_usart_static.o
 .text.DRV_USART2_LineControlSet
                0x00000000       0x74 build/default/debug/_ext/327000265/drv_usart_static.o
 .text.DRV_USART3_Deinitialize
                0x00000000       0x4c build/default/debug/_ext/327000265/drv_usart_static.o
 .text.DRV_USART3_Status
                0x00000000        0x8 build/default/debug/_ext/327000265/drv_usart_static.o
 .text.DRV_USART3_Open
                0x00000000        0x8 build/default/debug/_ext/327000265/drv_usart_static.o
 .text.DRV_USART3_Close
                0x00000000        0x8 build/default/debug/_ext/327000265/drv_usart_static.o
 .text.DRV_USART3_ClientStatus
                0x00000000        0x8 build/default/debug/_ext/327000265/drv_usart_static.o
 .text.DRV_USART3_TransferStatus
                0x00000000       0x48 build/default/debug/_ext/327000265/drv_usart_static.o
 .text.DRV_USART3_ErrorGet
                0x00000000       0x10 build/default/debug/_ext/327000265/drv_usart_static.o
 .text._DRV_USART3_ErrorConditionClear
                0x00000000       0x88 build/default/debug/_ext/327000265/drv_usart_static.o
 .text.DRV_USART3_BaudSet
                0x00000000       0xf0 build/default/debug/_ext/327000265/drv_usart_static.o
 .text.DRV_USART3_LineControlSet
                0x00000000       0x74 build/default/debug/_ext/327000265/drv_usart_static.o
 .text          0x00000000        0x0 build/default/debug/_ext/327000265/drv_usart_static_byte_model.o
 .data          0x00000000        0x0 build/default/debug/_ext/327000265/drv_usart_static_byte_model.o
 .bss           0x00000000        0x0 build/default/debug/_ext/327000265/drv_usart_static_byte_model.o
 .reginfo       0x00000000       0x18 build/default/debug/_ext/327000265/drv_usart_static_byte_model.o
 .text.DRV_USART0_ReadByte
                0x00000000       0x50 build/default/debug/_ext/327000265/drv_usart_static_byte_model.o
 .text.DRV_USART0_WriteByte
                0x00000000       0x50 build/default/debug/_ext/327000265/drv_usart_static_byte_model.o
 .text.DRV_USART0_ReceiverBufferSizeGet
                0x00000000        0x8 build/default/debug/_ext/327000265/drv_usart_static_byte_model.o
 .text.DRV_USART0_TransmitBufferSizeGet
                0x00000000        0x8 build/default/debug/_ext/327000265/drv_usart_static_byte_model.o
 .text.DRV_USART0_ReceiverBufferIsEmpty
                0x00000000       0x18 build/default/debug/_ext/327000265/drv_usart_static_byte_model.o
 .text.DRV_USART0_TransmitBufferIsFull
                0x00000000       0x14 build/default/debug/_ext/327000265/drv_usart_static_byte_model.o
 .text.DRV_USART1_ReadByte
                0x00000000       0x50 build/default/debug/_ext/327000265/drv_usart_static_byte_model.o
 .text.DRV_USART1_WriteByte
                0x00000000       0x50 build/default/debug/_ext/327000265/drv_usart_static_byte_model.o
 .text.DRV_USART1_ReceiverBufferSizeGet
                0x00000000        0x8 build/default/debug/_ext/327000265/drv_usart_static_byte_model.o
 .text.DRV_USART1_TransmitBufferSizeGet
                0x00000000        0x8 build/default/debug/_ext/327000265/drv_usart_static_byte_model.o
 .text.DRV_USART1_ReceiverBufferIsEmpty
                0x00000000       0x18 build/default/debug/_ext/327000265/drv_usart_static_byte_model.o
 .text.DRV_USART1_TransmitBufferIsFull
                0x00000000       0x14 build/default/debug/_ext/327000265/drv_usart_static_byte_model.o
 .text.DRV_USART2_ReadByte
                0x00000000       0x50 build/default/debug/_ext/327000265/drv_usart_static_byte_model.o
 .text.DRV_USART2_WriteByte
                0x00000000       0x50 build/default/debug/_ext/327000265/drv_usart_static_byte_model.o
 .text.DRV_USART2_ReceiverBufferSizeGet
                0x00000000        0x8 build/default/debug/_ext/327000265/drv_usart_static_byte_model.o
 .text.DRV_USART2_TransmitBufferSizeGet
                0x00000000        0x8 build/default/debug/_ext/327000265/drv_usart_static_byte_model.o
 .text.DRV_USART2_ReceiverBufferIsEmpty
                0x00000000       0x18 build/default/debug/_ext/327000265/drv_usart_static_byte_model.o
 .text.DRV_USART2_TransmitBufferIsFull
                0x00000000       0x14 build/default/debug/_ext/327000265/drv_usart_static_byte_model.o
 .text.DRV_USART3_ReadByte
                0x00000000       0x50 build/default/debug/_ext/327000265/drv_usart_static_byte_model.o
 .text.DRV_USART3_WriteByte
                0x00000000       0x50 build/default/debug/_ext/327000265/drv_usart_static_byte_model.o
 .text.DRV_USART3_ReceiverBufferSizeGet
                0x00000000        0x8 build/default/debug/_ext/327000265/drv_usart_static_byte_model.o
 .text.DRV_USART3_TransmitBufferSizeGet
                0x00000000        0x8 build/default/debug/_ext/327000265/drv_usart_static_byte_model.o
 .text.DRV_USART3_ReceiverBufferIsEmpty
                0x00000000       0x18 build/default/debug/_ext/327000265/drv_usart_static_byte_model.o
 .text.DRV_USART3_TransmitBufferIsFull
                0x00000000       0x14 build/default/debug/_ext/327000265/drv_usart_static_byte_model.o
 .text          0x00000000        0x0 build/default/debug/_ext/639803181/sys_clk_pic32mx.o
 .data          0x00000000        0x0 build/default/debug/_ext/639803181/sys_clk_pic32mx.o
 .bss           0x00000000        0x0 build/default/debug/_ext/639803181/sys_clk_pic32mx.o
 .reginfo       0x00000000       0x18 build/default/debug/_ext/639803181/sys_clk_pic32mx.o
 .text.SYS_CLK_ReferenceFrequencyGet
                0x00000000        0x8 build/default/debug/_ext/639803181/sys_clk_pic32mx.o
 .text.SYS_CLK_SecondaryOscillatorEnable
                0x00000000       0x48 build/default/debug/_ext/639803181/sys_clk_pic32mx.o
 .text.SYS_CLK_SecondaryOscillatorDisable
                0x00000000       0x48 build/default/debug/_ext/639803181/sys_clk_pic32mx.o
 .text.SYS_CLK_SecondaryOscillatorIsEnabled
                0x00000000       0x10 build/default/debug/_ext/639803181/sys_clk_pic32mx.o
 .text          0x00000000        0x0 build/default/debug/_ext/340578644/sys_devcon.o
 .data          0x00000000        0x0 build/default/debug/_ext/340578644/sys_devcon.o
 .bss           0x00000000        0x0 build/default/debug/_ext/340578644/sys_devcon.o
 .reginfo       0x00000000       0x18 build/default/debug/_ext/340578644/sys_devcon.o
 .text.SYS_DEVCON_Reinitialize
                0x00000000       0x10 build/default/debug/_ext/340578644/sys_devcon.o
 .text.SYS_DEVCON_Deinitialize
                0x00000000        0x8 build/default/debug/_ext/340578644/sys_devcon.o
 .text.SYS_DEVCON_Status
                0x00000000        0x8 build/default/debug/_ext/340578644/sys_devcon.o
 .text.SYS_DEVCON_Tasks
                0x00000000        0x8 build/default/debug/_ext/340578644/sys_devcon.o
 .text.SYS_DEVCON_JTAGEnable
                0x00000000       0x18 build/default/debug/_ext/340578644/sys_devcon.o
 .text.SYS_DEVCON_TraceEnable
                0x00000000       0x1c build/default/debug/_ext/340578644/sys_devcon.o
 .text.SYS_DEVCON_TraceDisable
                0x00000000       0x18 build/default/debug/_ext/340578644/sys_devcon.o
 .text.SYS_DEVCON_PowerModeEnter
                0x00000000       0x44 build/default/debug/_ext/340578644/sys_devcon.o
 .text          0x00000000        0x0 build/default/debug/_ext/340578644/sys_devcon_pic32mx.o
 .data          0x00000000        0x0 build/default/debug/_ext/340578644/sys_devcon_pic32mx.o
 .bss           0x00000000        0x0 build/default/debug/_ext/340578644/sys_devcon_pic32mx.o
 .reginfo       0x00000000       0x18 build/default/debug/_ext/340578644/sys_devcon_pic32mx.o
 .text          0x00000000        0x0 build/default/debug/_ext/822048611/sys_ports_static.o
 .data          0x00000000        0x0 build/default/debug/_ext/822048611/sys_ports_static.o
 .bss           0x00000000        0x0 build/default/debug/_ext/822048611/sys_ports_static.o
 .reginfo       0x00000000       0x18 build/default/debug/_ext/822048611/sys_ports_static.o
 .text.SYS_PORTS_Read
                0x00000000       0x28 build/default/debug/_ext/822048611/sys_ports_static.o
 .text.SYS_PORTS_Write
                0x00000000       0x28 build/default/debug/_ext/822048611/sys_ports_static.o
 .text.SYS_PORTS_LatchedGet
                0x00000000        0x8 build/default/debug/_ext/822048611/sys_ports_static.o
 .text.SYS_PORTS_Set
                0x00000000       0x2c build/default/debug/_ext/822048611/sys_ports_static.o
 .text.SYS_PORTS_Clear
                0x00000000       0x28 build/default/debug/_ext/822048611/sys_ports_static.o
 .text.SYS_PORTS_DirectionSelect
                0x00000000       0x54 build/default/debug/_ext/822048611/sys_ports_static.o
 .text.SYS_PORTS_DirectionGet
                0x00000000       0x28 build/default/debug/_ext/822048611/sys_ports_static.o
 .text.SYS_PORTS_Toggle
                0x00000000       0x28 build/default/debug/_ext/822048611/sys_ports_static.o
 .text.SYS_PORTS_OpenDrainEnable
                0x00000000       0x28 build/default/debug/_ext/822048611/sys_ports_static.o
 .text.SYS_PORTS_OpenDrainDisable
                0x00000000       0x28 build/default/debug/_ext/822048611/sys_ports_static.o
 .text.SYS_PORTS_InterruptStatusGet
                0x00000000        0x8 build/default/debug/_ext/822048611/sys_ports_static.o
 .text.SYS_PORTS_ChangeNotificationGlobalEnable
                0x00000000       0x14 build/default/debug/_ext/822048611/sys_ports_static.o
 .text.SYS_PORTS_ChangeNotificationGlobalDisable
                0x00000000       0x14 build/default/debug/_ext/822048611/sys_ports_static.o
 .text.SYS_PORTS_GlobalChangeNotificationDisable
                0x00000000       0x14 build/default/debug/_ext/822048611/sys_ports_static.o
 .text.SYS_PORTS_ChangeNotificationEnable
                0x00000000       0x50 build/default/debug/_ext/822048611/sys_ports_static.o
 .text.SYS_PORTS_ChangeNotificationDisable
                0x00000000       0x18 build/default/debug/_ext/822048611/sys_ports_static.o
 .text.SYS_PORTS_ChangeNotificationInIdleModeEnable
                0x00000000       0x14 build/default/debug/_ext/822048611/sys_ports_static.o
 .text.SYS_PORTS_ChangeNotificationInIdleModeDisable
                0x00000000       0x14 build/default/debug/_ext/822048611/sys_ports_static.o
 .text.SYS_PORTS_ChangeNotificationPullUpEnable
                0x00000000       0x18 build/default/debug/_ext/822048611/sys_ports_static.o
 .text.SYS_PORTS_ChangeNotificationPullUpDisable
                0x00000000       0x18 build/default/debug/_ext/822048611/sys_ports_static.o
 .text.SYS_PORTS_PinModeSelect
                0x00000000       0x2c build/default/debug/_ext/822048611/sys_ports_static.o
 .text.SYS_PORTS_PinWrite
                0x00000000       0x60 build/default/debug/_ext/822048611/sys_ports_static.o
 .text.SYS_PORTS_PinLatchedGet
                0x00000000        0x8 build/default/debug/_ext/822048611/sys_ports_static.o
 .text.SYS_PORTS_PinRead
                0x00000000       0x2c build/default/debug/_ext/822048611/sys_ports_static.o
 .text.SYS_PORTS_PinToggle
                0x00000000       0x30 build/default/debug/_ext/822048611/sys_ports_static.o
 .text.SYS_PORTS_PinSet
                0x00000000       0x30 build/default/debug/_ext/822048611/sys_ports_static.o
 .text.SYS_PORTS_PinClear
                0x00000000       0x30 build/default/debug/_ext/822048611/sys_ports_static.o
 .text.SYS_PORTS_PinDirectionSelect
                0x00000000       0x60 build/default/debug/_ext/822048611/sys_ports_static.o
 .text.SYS_PORTS_PinOpenDrainEnable
                0x00000000       0x30 build/default/debug/_ext/822048611/sys_ports_static.o
 .text.SYS_PORTS_PinOpenDrainDisable
                0x00000000       0x30 build/default/debug/_ext/822048611/sys_ports_static.o
 .text.SYS_PORTS_PinPullUpEnable
                0x00000000        0x8 build/default/debug/_ext/822048611/sys_ports_static.o
 .text.SYS_PORTS_PinPullUpDisable
                0x00000000        0x8 build/default/debug/_ext/822048611/sys_ports_static.o
 .text.SYS_PORTS_PinPullDownEnable
                0x00000000        0x8 build/default/debug/_ext/822048611/sys_ports_static.o
 .text.SYS_PORTS_PinPullDownDisable
                0x00000000        0x8 build/default/debug/_ext/822048611/sys_ports_static.o
 .text.SYS_PORTS_InterruptEnable
                0x00000000        0x8 build/default/debug/_ext/822048611/sys_ports_static.o
 .text.SYS_PORTS_RemapInput
                0x00000000        0x8 build/default/debug/_ext/822048611/sys_ports_static.o
 .text.SYS_PORTS_RemapOutput
                0x00000000        0x8 build/default/debug/_ext/822048611/sys_ports_static.o
 .text          0x00000000        0x0 build/default/debug/_ext/1688732426/system_init.o
 .data          0x00000000        0x0 build/default/debug/_ext/1688732426/system_init.o
 .bss           0x00000000        0x0 build/default/debug/_ext/1688732426/system_init.o
 .reginfo       0x00000000       0x18 build/default/debug/_ext/1688732426/system_init.o
 .text          0x00000000        0x0 build/default/debug/_ext/1688732426/system_interrupt.o
 .reginfo       0x00000000       0x18 build/default/debug/_ext/1688732426/system_interrupt.o
 .text          0x00000000        0x0 build/default/debug/_ext/1688732426/system_exceptions.o
 .data          0x00000000        0x0 build/default/debug/_ext/1688732426/system_exceptions.o
 .bss           0x00000000        0x0 build/default/debug/_ext/1688732426/system_exceptions.o
 .reginfo       0x00000000       0x18 build/default/debug/_ext/1688732426/system_exceptions.o
 .text          0x00000000        0x0 build/default/debug/_ext/1688732426/system_tasks.o
 .data          0x00000000        0x0 build/default/debug/_ext/1688732426/system_tasks.o
 .bss           0x00000000        0x0 build/default/debug/_ext/1688732426/system_tasks.o
 .reginfo       0x00000000       0x18 build/default/debug/_ext/1688732426/system_tasks.o
 .text          0x00000000        0x0 build/default/debug/_ext/1688732426/system_interrupt_a.o
 .data          0x00000000        0x0 build/default/debug/_ext/1688732426/system_interrupt_a.o
 .bss           0x00000000        0x0 build/default/debug/_ext/1688732426/system_interrupt_a.o
 .reginfo       0x00000000       0x18 build/default/debug/_ext/1688732426/system_interrupt_a.o
 .text          0x00000000        0x0 build/default/debug/_ext/1688732426/rtos_hooks.o
 .data          0x00000000        0x0 build/default/debug/_ext/1688732426/rtos_hooks.o
 .bss           0x00000000        0x0 build/default/debug/_ext/1688732426/rtos_hooks.o
 .reginfo       0x00000000       0x18 build/default/debug/_ext/1688732426/rtos_hooks.o
 .text          0x00000000        0x0 build/default/debug/_ext/1360937237/app.o
 .data          0x00000000        0x0 build/default/debug/_ext/1360937237/app.o
 .bss           0x00000000        0x0 build/default/debug/_ext/1360937237/app.o
 .reginfo       0x00000000       0x18 build/default/debug/_ext/1360937237/app.o
 .text          0x00000000        0x0 build/default/debug/_ext/1360937237/main.o
 .data          0x00000000        0x0 build/default/debug/_ext/1360937237/main.o
 .bss           0x00000000        0x0 build/default/debug/_ext/1360937237/main.o
 .reginfo       0x00000000       0x18 build/default/debug/_ext/1360937237/main.o
 .text          0x00000000        0x0 build/default/debug/_ext/45544379/debug.o
 .data          0x00000000        0x0 build/default/debug/_ext/45544379/debug.o
 .bss           0x00000000        0x0 build/default/debug/_ext/45544379/debug.o
 .reginfo       0x00000000       0x18 build/default/debug/_ext/45544379/debug.o
 .text.dbgUARTVal
                0x00000000        0x8 build/default/debug/_ext/45544379/debug.o
 .text.dbgStopCode
                0x00000000        0x8 build/default/debug/_ext/45544379/debug.o
 .text.UARTSendString
                0x00000000        0x8 build/default/debug/_ext/45544379/debug.o
 .text          0x00000000        0x0 build/default/debug/_ext/1360937237/Distance.o
 .bss           0x00000000        0x0 build/default/debug/_ext/1360937237/Distance.o
 .reginfo       0x00000000       0x18 build/default/debug/_ext/1360937237/Distance.o
 .text          0x00000000        0x0 build/default/debug/_ext/1360937237/IR.o
 .data          0x00000000      0x100 build/default/debug/_ext/1360937237/IR.o
 .bss           0x00000000        0x0 build/default/debug/_ext/1360937237/IR.o
 .reginfo       0x00000000       0x18 build/default/debug/_ext/1360937237/IR.o
 .text          0x00000000        0x0 build/default/debug/_ext/1360937237/TxThread.o
 .data          0x00000000        0x0 build/default/debug/_ext/1360937237/TxThread.o
 .bss           0x00000000        0x0 build/default/debug/_ext/1360937237/TxThread.o
 .reginfo       0x00000000       0x18 build/default/debug/_ext/1360937237/TxThread.o
 .text          0x00000000        0x0 build/default/debug/_ext/45544379/JSON.o
 .data          0x00000000        0x0 build/default/debug/_ext/45544379/JSON.o
 .bss           0x00000000        0x0 build/default/debug/_ext/45544379/JSON.o
 .reginfo       0x00000000       0x18 build/default/debug/_ext/45544379/JSON.o
 .text.JSONtoString
                0x00000000       0x1c build/default/debug/_ext/45544379/JSON.o
 .text.parsing  0x00000000       0x20 build/default/debug/_ext/45544379/JSON.o
 .text.getStringTypeObject
                0x00000000       0x28 build/default/debug/_ext/45544379/JSON.o
 .text.getDoubleTypeObject
                0x00000000       0x28 build/default/debug/_ext/45544379/JSON.o
 .text.deleteJSON
                0x00000000       0x1c build/default/debug/_ext/45544379/JSON.o
 .text.sendRequest
                0x00000000      0x168 build/default/debug/_ext/45544379/JSON.o
 .text          0x00000000        0x0 build/default/debug/_ext/45544379/cJSON.o
 .bss           0x00000000       0x10 build/default/debug/_ext/45544379/cJSON.o
 .reginfo       0x00000000       0x18 build/default/debug/_ext/45544379/cJSON.o
 .text.parse_hex4
                0x00000000       0x8c build/default/debug/_ext/45544379/cJSON.o
 .text.parse_string
                0x00000000      0x530 build/default/debug/_ext/45544379/cJSON.o
 .text.buffer_skip_whitespace
                0x00000000       0xa4 build/default/debug/_ext/45544379/cJSON.o
 .text.get_array_item
                0x00000000       0x40 build/default/debug/_ext/45544379/cJSON.o
 .text.create_reference
                0x00000000       0xd4 build/default/debug/_ext/45544379/cJSON.o
 .text.get_object_item
                0x00000000      0x130 build/default/debug/_ext/45544379/cJSON.o
 .text.cJSON_GetErrorPtr
                0x00000000       0x10 build/default/debug/_ext/45544379/cJSON.o
 .text.cJSON_Version
                0x00000000       0x44 build/default/debug/_ext/45544379/cJSON.o
 .text.cJSON_InitHooks
                0x00000000       0xb8 build/default/debug/_ext/45544379/cJSON.o
 .text.parse_value
                0x00000000      0x740 build/default/debug/_ext/45544379/cJSON.o
 .text.cJSON_SetNumberHelper
                0x00000000       0x80 build/default/debug/_ext/45544379/cJSON.o
 .text.cJSON_ParseWithOpts
                0x00000000      0x1bc build/default/debug/_ext/45544379/cJSON.o
 .text.cJSON_Parse
                0x00000000       0x20 build/default/debug/_ext/45544379/cJSON.o
 .text.cJSON_Print
                0x00000000       0x24 build/default/debug/_ext/45544379/cJSON.o
 .text.cJSON_PrintBuffered
                0x00000000       0xe4 build/default/debug/_ext/45544379/cJSON.o
 .text.cJSON_PrintPreallocated
                0x00000000       0x74 build/default/debug/_ext/45544379/cJSON.o
 .text.cJSON_GetArraySize
                0x00000000       0x3c build/default/debug/_ext/45544379/cJSON.o
 .text.cJSON_GetArrayItem
                0x00000000       0x30 build/default/debug/_ext/45544379/cJSON.o
 .text.cJSON_GetObjectItem
                0x00000000       0x1c build/default/debug/_ext/45544379/cJSON.o
 .text.cJSON_GetObjectItemCaseSensitive
                0x00000000       0x1c build/default/debug/_ext/45544379/cJSON.o
 .text.cJSON_HasObjectItem
                0x00000000       0x20 build/default/debug/_ext/45544379/cJSON.o
 .text.cJSON_AddItemToArray
                0x00000000       0x1c build/default/debug/_ext/45544379/cJSON.o
 .text.cJSON_AddItemToObject
                0x00000000       0x24 build/default/debug/_ext/45544379/cJSON.o
 .text.cJSON_AddItemToObjectCS
                0x00000000       0x28 build/default/debug/_ext/45544379/cJSON.o
 .text.cJSON_AddItemReferenceToArray
                0x00000000       0x40 build/default/debug/_ext/45544379/cJSON.o
 .text.cJSON_AddItemReferenceToObject
                0x00000000       0x64 build/default/debug/_ext/45544379/cJSON.o
 .text.cJSON_DetachItemViaPointer
                0x00000000       0x6c build/default/debug/_ext/45544379/cJSON.o
 .text.cJSON_DetachItemFromArray
                0x00000000       0x44 build/default/debug/_ext/45544379/cJSON.o
 .text.cJSON_DeleteItemFromArray
                0x00000000       0x24 build/default/debug/_ext/45544379/cJSON.o
 .text.cJSON_DetachItemFromObject
                0x00000000       0x30 build/default/debug/_ext/45544379/cJSON.o
 .text.cJSON_DetachItemFromObjectCaseSensitive
                0x00000000       0x30 build/default/debug/_ext/45544379/cJSON.o
 .text.cJSON_DeleteItemFromObject
                0x00000000       0x24 build/default/debug/_ext/45544379/cJSON.o
 .text.cJSON_DeleteItemFromObjectCaseSensitive
                0x00000000       0x24 build/default/debug/_ext/45544379/cJSON.o
 .text.cJSON_InsertItemInArray
                0x00000000       0x7c build/default/debug/_ext/45544379/cJSON.o
 .text.cJSON_ReplaceItemViaPointer
                0x00000000       0x9c build/default/debug/_ext/45544379/cJSON.o
 .text.cJSON_ReplaceItemInArray
                0x00000000       0x4c build/default/debug/_ext/45544379/cJSON.o
 .text.cJSON_CreateNull
                0x00000000       0x2c build/default/debug/_ext/45544379/cJSON.o
 .text.cJSON_AddNullToObject
                0x00000000       0x70 build/default/debug/_ext/45544379/cJSON.o
 .text.cJSON_CreateTrue
                0x00000000       0x2c build/default/debug/_ext/45544379/cJSON.o
 .text.cJSON_AddTrueToObject
                0x00000000       0x70 build/default/debug/_ext/45544379/cJSON.o
 .text.cJSON_CreateFalse
                0x00000000       0x2c build/default/debug/_ext/45544379/cJSON.o
 .text.cJSON_AddFalseToObject
                0x00000000       0x70 build/default/debug/_ext/45544379/cJSON.o
 .text.cJSON_CreateBool
                0x00000000       0x40 build/default/debug/_ext/45544379/cJSON.o
 .text.cJSON_AddBoolToObject
                0x00000000       0x74 build/default/debug/_ext/45544379/cJSON.o
 .text.cJSON_CreateStringReference
                0x00000000       0x3c build/default/debug/_ext/45544379/cJSON.o
 .text.cJSON_CreateObjectReference
                0x00000000       0x3c build/default/debug/_ext/45544379/cJSON.o
 .text.cJSON_CreateArrayReference
                0x00000000       0x3c build/default/debug/_ext/45544379/cJSON.o
 .text.cJSON_CreateRaw
                0x00000000       0x74 build/default/debug/_ext/45544379/cJSON.o
 .text.cJSON_AddRawToObject
                0x00000000       0x74 build/default/debug/_ext/45544379/cJSON.o
 .text.cJSON_CreateArray
                0x00000000       0x2c build/default/debug/_ext/45544379/cJSON.o
 .text.cJSON_AddArrayToObject
                0x00000000       0x70 build/default/debug/_ext/45544379/cJSON.o
 .text.cJSON_AddObjectToObject
                0x00000000       0x70 build/default/debug/_ext/45544379/cJSON.o
 .text.cJSON_CreateIntArray
                0x00000000       0xe4 build/default/debug/_ext/45544379/cJSON.o
 .text.cJSON_CreateFloatArray
                0x00000000       0xdc build/default/debug/_ext/45544379/cJSON.o
 .text.cJSON_CreateDoubleArray
                0x00000000       0xdc build/default/debug/_ext/45544379/cJSON.o
 .text.cJSON_CreateStringArray
                0x00000000       0xdc build/default/debug/_ext/45544379/cJSON.o
 .text.cJSON_Duplicate
                0x00000000      0x128 build/default/debug/_ext/45544379/cJSON.o
 .text.cJSON_Minify
                0x00000000      0x178 build/default/debug/_ext/45544379/cJSON.o
 .text.cJSON_IsInvalid
                0x00000000       0x1c build/default/debug/_ext/45544379/cJSON.o
 .text.cJSON_IsFalse
                0x00000000       0x20 build/default/debug/_ext/45544379/cJSON.o
 .text.cJSON_IsTrue
                0x00000000       0x20 build/default/debug/_ext/45544379/cJSON.o
 .text.cJSON_IsBool
                0x00000000       0x20 build/default/debug/_ext/45544379/cJSON.o
 .text.cJSON_IsNull
                0x00000000       0x20 build/default/debug/_ext/45544379/cJSON.o
 .text.cJSON_IsNumber
                0x00000000       0x20 build/default/debug/_ext/45544379/cJSON.o
 .text.cJSON_IsString
                0x00000000       0x20 build/default/debug/_ext/45544379/cJSON.o
 .text.cJSON_GetStringValue
                0x00000000       0x30 build/default/debug/_ext/45544379/cJSON.o
 .text.cJSON_IsArray
                0x00000000       0x20 build/default/debug/_ext/45544379/cJSON.o
 .text.cJSON_IsObject
                0x00000000       0x20 build/default/debug/_ext/45544379/cJSON.o
 .text.cJSON_IsRaw
                0x00000000       0x20 build/default/debug/_ext/45544379/cJSON.o
 .text.cJSON_Compare
                0x00000000      0x29c build/default/debug/_ext/45544379/cJSON.o
 .text.cJSON_malloc
                0x00000000       0x24 build/default/debug/_ext/45544379/cJSON.o
 .text.cJSON_free
                0x00000000       0x24 build/default/debug/_ext/45544379/cJSON.o
 .text.replace_item_in_object
                0x00000000       0xc0 build/default/debug/_ext/45544379/cJSON.o
 .text.cJSON_ReplaceItemInObject
                0x00000000       0x1c build/default/debug/_ext/45544379/cJSON.o
 .text.cJSON_ReplaceItemInObjectCaseSensitive
                0x00000000       0x1c build/default/debug/_ext/45544379/cJSON.o
 .text          0x00000000        0x0 build/default/debug/_ext/45544379/md5.o
 .data          0x00000000        0x0 build/default/debug/_ext/45544379/md5.o
 .bss           0x00000000        0x0 build/default/debug/_ext/45544379/md5.o
 .reginfo       0x00000000       0x18 build/default/debug/_ext/45544379/md5.o
 .text          0x00000000        0x0 build/default/debug/_ext/45544379/sensor_queue.o
 .data          0x00000000        0x0 build/default/debug/_ext/45544379/sensor_queue.o
 .bss           0x00000000        0x0 build/default/debug/_ext/45544379/sensor_queue.o
 .reginfo       0x00000000       0x18 build/default/debug/_ext/45544379/sensor_queue.o
 .text.SendMessageFromThread
                0x00000000       0x30 build/default/debug/_ext/45544379/sensor_queue.o
 .text.ReceiveMessageISR
                0x00000000       0x34 build/default/debug/_ext/45544379/sensor_queue.o
 .text          0x00000000        0x0 build/default/debug/_ext/24337685/osal_freertos.o
 .data          0x00000000        0x0 build/default/debug/_ext/24337685/osal_freertos.o
 .bss           0x00000000        0x0 build/default/debug/_ext/24337685/osal_freertos.o
 .reginfo       0x00000000       0x18 build/default/debug/_ext/24337685/osal_freertos.o
 .text.OSAL_CRIT_Enter
                0x00000000       0x48 build/default/debug/_ext/24337685/osal_freertos.o
 .text.OSAL_CRIT_Leave
                0x00000000       0x44 build/default/debug/_ext/24337685/osal_freertos.o
 .text.OSAL_SEM_Create
                0x00000000       0x8c build/default/debug/_ext/24337685/osal_freertos.o
 .text.OSAL_SEM_Delete
                0x00000000       0x30 build/default/debug/_ext/24337685/osal_freertos.o
 .text.OSAL_SEM_Pend
                0x00000000       0x38 build/default/debug/_ext/24337685/osal_freertos.o
 .text.OSAL_SEM_Post
                0x00000000       0x30 build/default/debug/_ext/24337685/osal_freertos.o
 .text.OSAL_SEM_PostISR
                0x00000000       0x4c build/default/debug/_ext/24337685/osal_freertos.o
 .text.OSAL_SEM_GetCount
                0x00000000       0x2c build/default/debug/_ext/24337685/osal_freertos.o
 .text.OSAL_MUTEX_Delete
                0x00000000       0x3c build/default/debug/_ext/24337685/osal_freertos.o
 .text.OSAL_MUTEX_Lock
                0x00000000       0x38 build/default/debug/_ext/24337685/osal_freertos.o
 .text.OSAL_MUTEX_Unlock
                0x00000000       0x30 build/default/debug/_ext/24337685/osal_freertos.o
 .rodata        0x00000000        0xc build/default/debug/_ext/24337685/osal_freertos.o
 .text.OSAL_Name
                0x00000000        0xc build/default/debug/_ext/24337685/osal_freertos.o
 .text.OSAL_Initialize
                0x00000000        0x8 build/default/debug/_ext/24337685/osal_freertos.o
 .text          0x00000000        0x0 build/default/debug/_ext/122796885/sys_int_pic32.o
 .data          0x00000000        0x0 build/default/debug/_ext/122796885/sys_int_pic32.o
 .bss           0x00000000        0x0 build/default/debug/_ext/122796885/sys_int_pic32.o
 .reginfo       0x00000000       0x18 build/default/debug/_ext/122796885/sys_int_pic32.o
 .text.SYS_INT_StatusGetAndDisable
                0x00000000       0x1c build/default/debug/_ext/122796885/sys_int_pic32.o
 .text.SYS_INT_StatusRestore
                0x00000000       0x1c build/default/debug/_ext/122796885/sys_int_pic32.o
 .text.SYS_INT_Disable
                0x00000000       0x20 build/default/debug/_ext/122796885/sys_int_pic32.o
 .text.SYS_INT_ExternalInterruptTriggerSet
                0x00000000       0x28 build/default/debug/_ext/122796885/sys_int_pic32.o
 .text          0x00000000        0x0 build/default/debug/_ext/1856876499/heap_1.o
 .data          0x00000000        0x0 build/default/debug/_ext/1856876499/heap_1.o
 .reginfo       0x00000000       0x18 build/default/debug/_ext/1856876499/heap_1.o
 .text.xPortGetFreeHeapSize
                0x00000000        0x8 build/default/debug/_ext/1856876499/heap_1.o
 .text.xPortGetMinimumEverFreeHeapSize
                0x00000000        0x8 build/default/debug/_ext/1856876499/heap_1.o
 .text.vPortInitialiseBlocks
                0x00000000        0x8 build/default/debug/_ext/1856876499/heap_1.o
 .text          0x00000000        0x0 build/default/debug/_ext/12131622/port.o
 .data          0x00000000        0x0 build/default/debug/_ext/12131622/port.o
 .reginfo       0x00000000       0x18 build/default/debug/_ext/12131622/port.o
 .text.vPortEndScheduler
                0x00000000        0x8 build/default/debug/_ext/12131622/port.o
 .data          0x00000000        0x0 build/default/debug/_ext/12131622/port_asm.o
 .bss           0x00000000        0x0 build/default/debug/_ext/12131622/port_asm.o
 .reginfo       0x00000000       0x18 build/default/debug/_ext/12131622/port_asm.o
 .text          0x00000000        0x0 build/default/debug/_ext/1128951024/croutine.o
 .data          0x00000000        0x0 build/default/debug/_ext/1128951024/croutine.o
 .bss           0x00000000        0x0 build/default/debug/_ext/1128951024/croutine.o
 .reginfo       0x00000000       0x18 build/default/debug/_ext/1128951024/croutine.o
 .text          0x00000000        0x0 build/default/debug/_ext/1128951024/list.o
 .data          0x00000000        0x0 build/default/debug/_ext/1128951024/list.o
 .bss           0x00000000        0x0 build/default/debug/_ext/1128951024/list.o
 .reginfo       0x00000000       0x18 build/default/debug/_ext/1128951024/list.o
 .text          0x00000000        0x0 build/default/debug/_ext/1128951024/queue.o
 .data          0x00000000        0x0 build/default/debug/_ext/1128951024/queue.o
 .bss           0x00000000        0x0 build/default/debug/_ext/1128951024/queue.o
 .reginfo       0x00000000       0x18 build/default/debug/_ext/1128951024/queue.o
 .text.xQueueCreateCountingSemaphore
                0x00000000       0x34 build/default/debug/_ext/1128951024/queue.o
 .text.xQueueGiveFromISR
                0x00000000       0xc0 build/default/debug/_ext/1128951024/queue.o
 .text.xQueueSemaphoreTake
                0x00000000      0x22c build/default/debug/_ext/1128951024/queue.o
 .text.xQueuePeek
                0x00000000      0x1b8 build/default/debug/_ext/1128951024/queue.o
 .text.xQueuePeekFromISR
                0x00000000       0x74 build/default/debug/_ext/1128951024/queue.o
 .text.uxQueueMessagesWaiting
                0x00000000       0x34 build/default/debug/_ext/1128951024/queue.o
 .text.uxQueueSpacesAvailable
                0x00000000       0x38 build/default/debug/_ext/1128951024/queue.o
 .text.uxQueueMessagesWaitingFromISR
                0x00000000        0xc build/default/debug/_ext/1128951024/queue.o
 .text.vQueueDelete
                0x00000000       0x1c build/default/debug/_ext/1128951024/queue.o
 .text.xQueueIsQueueEmptyFromISR
                0x00000000        0xc build/default/debug/_ext/1128951024/queue.o
 .text.xQueueIsQueueFullFromISR
                0x00000000       0x14 build/default/debug/_ext/1128951024/queue.o
 .text          0x00000000        0x0 build/default/debug/_ext/1128951024/tasks.o
 .data          0x00000000        0x0 build/default/debug/_ext/1128951024/tasks.o
 .bss           0x00000000        0x0 build/default/debug/_ext/1128951024/tasks.o
 .reginfo       0x00000000       0x18 build/default/debug/_ext/1128951024/tasks.o
 .text.uxTaskPriorityGetFromISR
                0x00000000       0x3c build/default/debug/_ext/1128951024/tasks.o
 .text.prvTaskIsTaskSuspended
                0x00000000       0x38 build/default/debug/_ext/1128951024/tasks.o
 .text.xTaskResumeFromISR
                0x00000000       0xd8 build/default/debug/_ext/1128951024/tasks.o
 .text.vTaskEndScheduler
                0x00000000       0x34 build/default/debug/_ext/1128951024/tasks.o
 .text.xTaskGetTickCountFromISR
                0x00000000        0xc build/default/debug/_ext/1128951024/tasks.o
 .text.uxTaskGetNumberOfTasks
                0x00000000        0xc build/default/debug/_ext/1128951024/tasks.o
 .text.pcTaskGetName
                0x00000000       0x10 build/default/debug/_ext/1128951024/tasks.o
 .text.vTaskRemoveFromUnorderedEventList
                0x00000000       0x98 build/default/debug/_ext/1128951024/tasks.o
 .text.xTaskGetCurrentTaskHandle
                0x00000000        0xc build/default/debug/_ext/1128951024/tasks.o
 .text.xTaskPriorityInherit
                0x00000000      0x14c build/default/debug/_ext/1128951024/tasks.o
 .text.vTaskPriorityDisinheritAfterTimeout
                0x00000000      0x114 build/default/debug/_ext/1128951024/tasks.o
 .text.vTaskDelete
                0x00000000      0x120 build/default/debug/_ext/1128951024/tasks.o
 .text.uxTaskPriorityGet
                0x00000000       0x38 build/default/debug/_ext/1128951024/tasks.o
 .text.vTaskPrioritySet
                0x00000000      0x15c build/default/debug/_ext/1128951024/tasks.o
 .text.vTaskSuspend
                0x00000000      0x140 build/default/debug/_ext/1128951024/tasks.o
 .text.vTaskResume
                0x00000000       0xc0 build/default/debug/_ext/1128951024/tasks.o
 .text.vTaskSetTimeOutState
                0x00000000       0x38 build/default/debug/_ext/1128951024/tasks.o
 .text.uxTaskResetEventItemValue
                0x00000000       0x24 build/default/debug/_ext/1128951024/tasks.o
 .text.pvTaskIncrementMutexHeldCount
                0x00000000       0x28 build/default/debug/_ext/1128951024/tasks.o
 .text.xTaskGenericNotify
                0x00000000      0x170 build/default/debug/_ext/1128951024/tasks.o
 .text.xTaskGenericNotifyFromISR
                0x00000000      0x1a8 build/default/debug/_ext/1128951024/tasks.o
 .text.vTaskNotifyGiveFromISR
                0x00000000      0x104 build/default/debug/_ext/1128951024/tasks.o
 .text.xTaskNotifyStateClear
                0x00000000       0x60 build/default/debug/_ext/1128951024/tasks.o
 .text.vTaskDelayUntil
                0x00000000       0xa8 build/default/debug/_ext/1128951024/tasks.o
 .text.vTaskPlaceOnUnorderedEventList
                0x00000000       0x48 build/default/debug/_ext/1128951024/tasks.o
 .text.ulTaskNotifyTake
                0x00000000       0xc4 build/default/debug/_ext/1128951024/tasks.o
 .text.xTaskNotifyWait
                0x00000000      0x108 build/default/debug/_ext/1128951024/tasks.o
 .text          0x00000000        0x0 build/default/debug/_ext/1128951024/timers.o
 .data          0x00000000        0x0 build/default/debug/_ext/1128951024/timers.o
 .reginfo       0x00000000       0x18 build/default/debug/_ext/1128951024/timers.o
 .text.xTimerGetTimerDaemonTaskHandle
                0x00000000        0x8 build/default/debug/_ext/1128951024/timers.o
 .text.xTimerGetPeriod
                0x00000000        0x8 build/default/debug/_ext/1128951024/timers.o
 .text.xTimerGetExpiryTime
                0x00000000        0x8 build/default/debug/_ext/1128951024/timers.o
 .text.pcTimerGetName
                0x00000000        0x8 build/default/debug/_ext/1128951024/timers.o
 .text.xTimerIsTimerActive
                0x00000000       0x34 build/default/debug/_ext/1128951024/timers.o
 .text.pvTimerGetTimerID
                0x00000000       0x30 build/default/debug/_ext/1128951024/timers.o
 .text.vTimerSetTimerID
                0x00000000       0x38 build/default/debug/_ext/1128951024/timers.o
 .text          0x00000000        0x0 build/default/debug/_ext/1128951024/event_groups.o
 .data          0x00000000        0x0 build/default/debug/_ext/1128951024/event_groups.o
 .bss           0x00000000        0x0 build/default/debug/_ext/1128951024/event_groups.o
 .reginfo       0x00000000       0x18 build/default/debug/_ext/1128951024/event_groups.o
 .text.xEventGroupCreate
                0x00000000       0x3c build/default/debug/_ext/1128951024/event_groups.o
 .text.xEventGroupWaitBits
                0x00000000      0x148 build/default/debug/_ext/1128951024/event_groups.o
 .text.xEventGroupClearBits
                0x00000000       0x50 build/default/debug/_ext/1128951024/event_groups.o
 .text.xEventGroupGetBitsFromISR
                0x00000000       0x34 build/default/debug/_ext/1128951024/event_groups.o
 .text.xEventGroupSetBits
                0x00000000       0xfc build/default/debug/_ext/1128951024/event_groups.o
 .text.xEventGroupSync
                0x00000000      0x110 build/default/debug/_ext/1128951024/event_groups.o
 .text.vEventGroupDelete
                0x00000000       0x58 build/default/debug/_ext/1128951024/event_groups.o
 .text.vEventGroupSetBitsCallback
                0x00000000       0x1c build/default/debug/_ext/1128951024/event_groups.o
 .text.vEventGroupClearBitsCallback
                0x00000000       0x1c build/default/debug/_ext/1128951024/event_groups.o
 .text          0x00000000        0x0 build/default/debug/_ext/1128951024/stream_buffer.o
 .data          0x00000000        0x0 build/default/debug/_ext/1128951024/stream_buffer.o
 .bss           0x00000000        0x0 build/default/debug/_ext/1128951024/stream_buffer.o
 .reginfo       0x00000000       0x18 build/default/debug/_ext/1128951024/stream_buffer.o
 .text.prvBytesInBuffer
                0x00000000       0x28 build/default/debug/_ext/1128951024/stream_buffer.o
 .text.prvWriteBytesToBuffer
                0x00000000       0xa4 build/default/debug/_ext/1128951024/stream_buffer.o
 .text.prvWriteMessageToBuffer
                0x00000000       0x80 build/default/debug/_ext/1128951024/stream_buffer.o
 .text.prvReadBytesFromBuffer
                0x00000000       0xb4 build/default/debug/_ext/1128951024/stream_buffer.o
 .text.prvReadMessageFromBuffer
                0x00000000       0xa0 build/default/debug/_ext/1128951024/stream_buffer.o
 .text.xStreamBufferGenericCreate
                0x00000000       0x8c build/default/debug/_ext/1128951024/stream_buffer.o
 .text.vStreamBufferDelete
                0x00000000       0x40 build/default/debug/_ext/1128951024/stream_buffer.o
 .text.xStreamBufferReset
                0x00000000       0x9c build/default/debug/_ext/1128951024/stream_buffer.o
 .text.xStreamBufferSetTriggerLevel
                0x00000000       0x28 build/default/debug/_ext/1128951024/stream_buffer.o
 .text.xStreamBufferSpacesAvailable
                0x00000000       0x2c build/default/debug/_ext/1128951024/stream_buffer.o
 .text.xStreamBufferBytesAvailable
                0x00000000       0x1c build/default/debug/_ext/1128951024/stream_buffer.o
 .text.xStreamBufferSend
                0x00000000      0x16c build/default/debug/_ext/1128951024/stream_buffer.o
 .text.xStreamBufferSendFromISR
                0x00000000       0xdc build/default/debug/_ext/1128951024/stream_buffer.o
 .text.xStreamBufferReceive
                0x00000000      0x158 build/default/debug/_ext/1128951024/stream_buffer.o
 .text.xStreamBufferReceiveFromISR
                0x00000000       0xd8 build/default/debug/_ext/1128951024/stream_buffer.o
 .text.xStreamBufferIsEmpty
                0x00000000       0x14 build/default/debug/_ext/1128951024/stream_buffer.o
 .text.xStreamBufferIsFull
                0x00000000       0x3c build/default/debug/_ext/1128951024/stream_buffer.o
 .text.xStreamBufferSendCompletedFromISR
                0x00000000       0x74 build/default/debug/_ext/1128951024/stream_buffer.o
 .text.xStreamBufferReceiveCompletedFromISR
                0x00000000       0x74 build/default/debug/_ext/1128951024/stream_buffer.o
 .text          0x00000000        0x0 C:\Users\MOQIZH~1\AppData\Local\Temp\ccYY4veD.o
 .data          0x00000000        0x0 C:\Users\MOQIZH~1\AppData\Local\Temp\ccYY4veD.o
 .bss           0x00000000        0x0 C:\Users\MOQIZH~1\AppData\Local\Temp\ccYY4veD.o
 .reginfo       0x00000000       0x18 C:\Users\MOQIZH~1\AppData\Local\Temp\ccYY4veD.o
 .text          0x00000000        0x0 C:\Users\MOQIZH~1\AppData\Local\Temp\ccgoGl1o.o
 .data          0x00000000        0x0 C:\Users\MOQIZH~1\AppData\Local\Temp\ccgoGl1o.o
 .bss           0x00000000        0x0 C:\Users\MOQIZH~1\AppData\Local\Temp\ccgoGl1o.o
 .reginfo       0x00000000       0x18 C:\Users\MOQIZH~1\AppData\Local\Temp\ccgoGl1o.o
 .text          0x00000000        0x0 C:\Users\MOQIZH~1\AppData\Local\Temp\ccnf1BQ8.o
 .data          0x00000000        0x0 C:\Users\MOQIZH~1\AppData\Local\Temp\ccnf1BQ8.o
 .bss           0x00000000        0x0 C:\Users\MOQIZH~1\AppData\Local\Temp\ccnf1BQ8.o
 .reginfo       0x00000000       0x18 C:\Users\MOQIZH~1\AppData\Local\Temp\ccnf1BQ8.o
 .discard       0x00000000       0xd0 C:\Users\MOQIZH~1\AppData\Local\Temp\ccnf1BQ8.o
 .text          0x00000000        0x0 c:/program files (x86)/microchip/xc32/v2.15/bin/bin/../../lib/gcc/pic32mx/4.8.3/../../../../pic32mx/lib/./proc/32MX795F512L\default_isr_vectors.o
 .data          0x00000000        0x0 c:/program files (x86)/microchip/xc32/v2.15/bin/bin/../../lib/gcc/pic32mx/4.8.3/../../../../pic32mx/lib/./proc/32MX795F512L\default_isr_vectors.o
 .bss           0x00000000        0x0 c:/program files (x86)/microchip/xc32/v2.15/bin/bin/../../lib/gcc/pic32mx/4.8.3/../../../../pic32mx/lib/./proc/32MX795F512L\default_isr_vectors.o
 .reginfo       0x00000000       0x18 c:/program files (x86)/microchip/xc32/v2.15/bin/bin/../../lib/gcc/pic32mx/4.8.3/../../../../pic32mx/lib/./proc/32MX795F512L\default_isr_vectors.o
 .discard       0x00000000       0xd0 c:/program files (x86)/microchip/xc32/v2.15/bin/bin/../../lib/gcc/pic32mx/4.8.3/../../../../pic32mx/lib/./proc/32MX795F512L\default_isr_vectors.o
 .data          0x00000000        0x0 c:/program files (x86)/microchip/xc32/v2.15/bin/bin/../../lib/gcc/pic32mx/4.8.3/../../../../pic32mx/lib\pic32_software_reset.o
 .bss           0x00000000        0x0 c:/program files (x86)/microchip/xc32/v2.15/bin/bin/../../lib/gcc/pic32mx/4.8.3/../../../../pic32mx/lib\pic32_software_reset.o
 .reginfo       0x00000000       0x18 c:/program files (x86)/microchip/xc32/v2.15/bin/bin/../../lib/gcc/pic32mx/4.8.3/../../../../pic32mx/lib\pic32_software_reset.o
 .text          0x00000000        0x0 c:/program files (x86)/microchip/xc32/v2.15/bin/bin/../../lib/gcc/pic32mx/4.8.3/../../../../pic32mx/lib/./proc/32MX795F512L\processor.o
 .data          0x00000000        0x0 c:/program files (x86)/microchip/xc32/v2.15/bin/bin/../../lib/gcc/pic32mx/4.8.3/../../../../pic32mx/lib/./proc/32MX795F512L\processor.o
 .bss           0x00000000        0x0 c:/program files (x86)/microchip/xc32/v2.15/bin/bin/../../lib/gcc/pic32mx/4.8.3/../../../../pic32mx/lib/./proc/32MX795F512L\processor.o
 .reginfo       0x00000000       0x18 c:/program files (x86)/microchip/xc32/v2.15/bin/bin/../../lib/gcc/pic32mx/4.8.3/../../../../pic32mx/lib/./proc/32MX795F512L\processor.o
 .data          0x00000000        0x0 c:/program files (x86)/microchip/xc32/v2.15/bin/bin/../../lib/gcc/pic32mx/4.8.3\libgcc.a(floatunsisf.o)
 .bss           0x00000000        0x0 c:/program files (x86)/microchip/xc32/v2.15/bin/bin/../../lib/gcc/pic32mx/4.8.3\libgcc.a(floatunsisf.o)
 .reginfo       0x00000000       0x18 c:/program files (x86)/microchip/xc32/v2.15/bin/bin/../../lib/gcc/pic32mx/4.8.3\libgcc.a(floatunsisf.o)
 .data          0x00000000        0x0 c:/program files (x86)/microchip/xc32/v2.15/bin/bin/../../lib/gcc/pic32mx/4.8.3/../../../../pic32mx/lib\libpic32.a(memcpy.o)
 .bss           0x00000000        0x0 c:/program files (x86)/microchip/xc32/v2.15/bin/bin/../../lib/gcc/pic32mx/4.8.3/../../../../pic32mx/lib\libpic32.a(memcpy.o)
 .reginfo       0x00000000       0x18 c:/program files (x86)/microchip/xc32/v2.15/bin/bin/../../lib/gcc/pic32mx/4.8.3/../../../../pic32mx/lib\libpic32.a(memcpy.o)
 .data          0x00000000        0x0 c:/program files (x86)/microchip/xc32/v2.15/bin/bin/../../lib/gcc/pic32mx/4.8.3/../../../../pic32mx/lib\libpic32.a(memset.o)
 .bss           0x00000000        0x0 c:/program files (x86)/microchip/xc32/v2.15/bin/bin/../../lib/gcc/pic32mx/4.8.3/../../../../pic32mx/lib\libpic32.a(memset.o)
 .reginfo       0x00000000       0x18 c:/program files (x86)/microchip/xc32/v2.15/bin/bin/../../lib/gcc/pic32mx/4.8.3/../../../../pic32mx/lib\libpic32.a(memset.o)
 .text          0x00000000      0x120 c:/program files (x86)/microchip/xc32/v2.15/bin/bin/../../lib/gcc/pic32mx/4.8.3/../../../../pic32mx/lib\libpic32.a(strcmp.o)
 .data          0x00000000        0x0 c:/program files (x86)/microchip/xc32/v2.15/bin/bin/../../lib/gcc/pic32mx/4.8.3/../../../../pic32mx/lib\libpic32.a(strcmp.o)
 .bss           0x00000000        0x0 c:/program files (x86)/microchip/xc32/v2.15/bin/bin/../../lib/gcc/pic32mx/4.8.3/../../../../pic32mx/lib\libpic32.a(strcmp.o)
 .reginfo       0x00000000       0x18 c:/program files (x86)/microchip/xc32/v2.15/bin/bin/../../lib/gcc/pic32mx/4.8.3/../../../../pic32mx/lib\libpic32.a(strcmp.o)
 .comment       0x00000000       0x1a c:/program files (x86)/microchip/xc32/v2.15/bin/bin/../../lib/gcc/pic32mx/4.8.3/../../../../pic32mx/lib\libpic32.a(strcmp.o)
 .data          0x00000000        0x0 c:/program files (x86)/microchip/xc32/v2.15/bin/bin/../../lib/gcc/pic32mx/4.8.3/../../../../pic32mx/lib\libpic32.a(strlen.o)
 .bss           0x00000000        0x0 c:/program files (x86)/microchip/xc32/v2.15/bin/bin/../../lib/gcc/pic32mx/4.8.3/../../../../pic32mx/lib\libpic32.a(strlen.o)
 .reginfo       0x00000000       0x18 c:/program files (x86)/microchip/xc32/v2.15/bin/bin/../../lib/gcc/pic32mx/4.8.3/../../../../pic32mx/lib\libpic32.a(strlen.o)
 .text          0x00000000        0x0 c:/program files (x86)/microchip/xc32/v2.15/bin/bin/../../lib/gcc/pic32mx/4.8.3/../../../../pic32mx/lib\libpic32.a(default-bootstrap-exception-handler.o)
 .data          0x00000000        0x0 c:/program files (x86)/microchip/xc32/v2.15/bin/bin/../../lib/gcc/pic32mx/4.8.3/../../../../pic32mx/lib\libpic32.a(default-bootstrap-exception-handler.o)
 .bss           0x00000000        0x0 c:/program files (x86)/microchip/xc32/v2.15/bin/bin/../../lib/gcc/pic32mx/4.8.3/../../../../pic32mx/lib\libpic32.a(default-bootstrap-exception-handler.o)
 .reginfo       0x00000000       0x18 c:/program files (x86)/microchip/xc32/v2.15/bin/bin/../../lib/gcc/pic32mx/4.8.3/../../../../pic32mx/lib\libpic32.a(default-bootstrap-exception-handler.o)
 .text          0x00000000        0x0 c:/program files (x86)/microchip/xc32/v2.15/bin/bin/../../lib/gcc/pic32mx/4.8.3/../../../../pic32mx/lib\libpic32.a(default-on-reset.o)
 .data          0x00000000        0x0 c:/program files (x86)/microchip/xc32/v2.15/bin/bin/../../lib/gcc/pic32mx/4.8.3/../../../../pic32mx/lib\libpic32.a(default-on-reset.o)
 .bss           0x00000000        0x0 c:/program files (x86)/microchip/xc32/v2.15/bin/bin/../../lib/gcc/pic32mx/4.8.3/../../../../pic32mx/lib\libpic32.a(default-on-reset.o)
 .reginfo       0x00000000       0x18 c:/program files (x86)/microchip/xc32/v2.15/bin/bin/../../lib/gcc/pic32mx/4.8.3/../../../../pic32mx/lib\libpic32.a(default-on-reset.o)
 .text          0x00000000        0x0 c:/program files (x86)/microchip/xc32/v2.15/bin/bin/../../lib/gcc/pic32mx/4.8.3/../../../../pic32mx/lib\libpic32.a(default-on-bootstrap.o)
 .data          0x00000000        0x0 c:/program files (x86)/microchip/xc32/v2.15/bin/bin/../../lib/gcc/pic32mx/4.8.3/../../../../pic32mx/lib\libpic32.a(default-on-bootstrap.o)
 .bss           0x00000000        0x0 c:/program files (x86)/microchip/xc32/v2.15/bin/bin/../../lib/gcc/pic32mx/4.8.3/../../../../pic32mx/lib\libpic32.a(default-on-bootstrap.o)
 .reginfo       0x00000000       0x18 c:/program files (x86)/microchip/xc32/v2.15/bin/bin/../../lib/gcc/pic32mx/4.8.3/../../../../pic32mx/lib\libpic32.a(default-on-bootstrap.o)
 .data          0x00000000        0x0 c:/program files (x86)/microchip/xc32/v2.15/bin/bin/../../lib/gcc/pic32mx/4.8.3/../../../../pic32mx/lib\libpic32.a(default-nmi-handler.o)
 .bss           0x00000000        0x0 c:/program files (x86)/microchip/xc32/v2.15/bin/bin/../../lib/gcc/pic32mx/4.8.3/../../../../pic32mx/lib\libpic32.a(default-nmi-handler.o)
 .reginfo       0x00000000       0x18 c:/program files (x86)/microchip/xc32/v2.15/bin/bin/../../lib/gcc/pic32mx/4.8.3/../../../../pic32mx/lib\libpic32.a(default-nmi-handler.o)
 .data          0x00000000        0x0 c:/program files (x86)/microchip/xc32/v2.15/bin/bin/../../lib/gcc/pic32mx/4.8.3/../../../../pic32mx/lib\libpic32.a(pic32_data_init.o)
 .bss           0x00000000        0x0 c:/program files (x86)/microchip/xc32/v2.15/bin/bin/../../lib/gcc/pic32mx/4.8.3/../../../../pic32mx/lib\libpic32.a(pic32_data_init.o)
 .reginfo       0x00000000       0x18 c:/program files (x86)/microchip/xc32/v2.15/bin/bin/../../lib/gcc/pic32mx/4.8.3/../../../../pic32mx/lib\libpic32.a(pic32_data_init.o)
 .text          0x00000000        0x0 c:/program files (x86)/microchip/xc32/v2.15/bin/bin/../../lib/gcc/pic32mx/4.8.3/../../../../pic32mx/lib\libpic32.a(general-exception.o)
 .data          0x00000000        0x0 c:/program files (x86)/microchip/xc32/v2.15/bin/bin/../../lib/gcc/pic32mx/4.8.3/../../../../pic32mx/lib\libpic32.a(general-exception.o)
 .bss           0x00000000        0x0 c:/program files (x86)/microchip/xc32/v2.15/bin/bin/../../lib/gcc/pic32mx/4.8.3/../../../../pic32mx/lib\libpic32.a(general-exception.o)
 .reginfo       0x00000000       0x18 c:/program files (x86)/microchip/xc32/v2.15/bin/bin/../../lib/gcc/pic32mx/4.8.3/../../../../pic32mx/lib\libpic32.a(general-exception.o)
 .text          0x00000000        0x0 c:/program files (x86)/microchip/xc32/v2.15/bin/bin/../../lib/gcc/pic32mx/4.8.3/../../../../pic32mx/lib\libpic32.a(vector0.o)
 .data          0x00000000        0x0 c:/program files (x86)/microchip/xc32/v2.15/bin/bin/../../lib/gcc/pic32mx/4.8.3/../../../../pic32mx/lib\libpic32.a(vector0.o)
 .bss           0x00000000        0x0 c:/program files (x86)/microchip/xc32/v2.15/bin/bin/../../lib/gcc/pic32mx/4.8.3/../../../../pic32mx/lib\libpic32.a(vector0.o)
 .reginfo       0x00000000       0x18 c:/program files (x86)/microchip/xc32/v2.15/bin/bin/../../lib/gcc/pic32mx/4.8.3/../../../../pic32mx/lib\libpic32.a(vector0.o)
 .text          0x00000000        0x0 c:/program files (x86)/microchip/xc32/v2.15/bin/bin/../../lib/gcc/pic32mx/4.8.3/../../../../pic32mx/lib\libpic32.a(vector2.o)
 .data          0x00000000        0x0 c:/program files (x86)/microchip/xc32/v2.15/bin/bin/../../lib/gcc/pic32mx/4.8.3/../../../../pic32mx/lib\libpic32.a(vector2.o)
 .bss           0x00000000        0x0 c:/program files (x86)/microchip/xc32/v2.15/bin/bin/../../lib/gcc/pic32mx/4.8.3/../../../../pic32mx/lib\libpic32.a(vector2.o)
 .reginfo       0x00000000       0x18 c:/program files (x86)/microchip/xc32/v2.15/bin/bin/../../lib/gcc/pic32mx/4.8.3/../../../../pic32mx/lib\libpic32.a(vector2.o)
 .text          0x00000000        0x0 c:/program files (x86)/microchip/xc32/v2.15/bin/bin/../../lib/gcc/pic32mx/4.8.3/../../../../pic32mx/lib\libpic32.a(vector3.o)
 .data          0x00000000        0x0 c:/program files (x86)/microchip/xc32/v2.15/bin/bin/../../lib/gcc/pic32mx/4.8.3/../../../../pic32mx/lib\libpic32.a(vector3.o)
 .bss           0x00000000        0x0 c:/program files (x86)/microchip/xc32/v2.15/bin/bin/../../lib/gcc/pic32mx/4.8.3/../../../../pic32mx/lib\libpic32.a(vector3.o)
 .reginfo       0x00000000       0x18 c:/program files (x86)/microchip/xc32/v2.15/bin/bin/../../lib/gcc/pic32mx/4.8.3/../../../../pic32mx/lib\libpic32.a(vector3.o)
 .text          0x00000000        0x0 c:/program files (x86)/microchip/xc32/v2.15/bin/bin/../../lib/gcc/pic32mx/4.8.3/../../../../pic32mx/lib\libpic32.a(vector5.o)
 .data          0x00000000        0x0 c:/program files (x86)/microchip/xc32/v2.15/bin/bin/../../lib/gcc/pic32mx/4.8.3/../../../../pic32mx/lib\libpic32.a(vector5.o)
 .bss           0x00000000        0x0 c:/program files (x86)/microchip/xc32/v2.15/bin/bin/../../lib/gcc/pic32mx/4.8.3/../../../../pic32mx/lib\libpic32.a(vector5.o)
 .reginfo       0x00000000       0x18 c:/program files (x86)/microchip/xc32/v2.15/bin/bin/../../lib/gcc/pic32mx/4.8.3/../../../../pic32mx/lib\libpic32.a(vector5.o)
 .text          0x00000000        0x0 c:/program files (x86)/microchip/xc32/v2.15/bin/bin/../../lib/gcc/pic32mx/4.8.3/../../../../pic32mx/lib\libpic32.a(vector6.o)
 .data          0x00000000        0x0 c:/program files (x86)/microchip/xc32/v2.15/bin/bin/../../lib/gcc/pic32mx/4.8.3/../../../../pic32mx/lib\libpic32.a(vector6.o)
 .bss           0x00000000        0x0 c:/program files (x86)/microchip/xc32/v2.15/bin/bin/../../lib/gcc/pic32mx/4.8.3/../../../../pic32mx/lib\libpic32.a(vector6.o)
 .reginfo       0x00000000       0x18 c:/program files (x86)/microchip/xc32/v2.15/bin/bin/../../lib/gcc/pic32mx/4.8.3/../../../../pic32mx/lib\libpic32.a(vector6.o)
 .text          0x00000000        0x0 c:/program files (x86)/microchip/xc32/v2.15/bin/bin/../../lib/gcc/pic32mx/4.8.3/../../../../pic32mx/lib\libpic32.a(vector7.o)
 .data          0x00000000        0x0 c:/program files (x86)/microchip/xc32/v2.15/bin/bin/../../lib/gcc/pic32mx/4.8.3/../../../../pic32mx/lib\libpic32.a(vector7.o)
 .bss           0x00000000        0x0 c:/program files (x86)/microchip/xc32/v2.15/bin/bin/../../lib/gcc/pic32mx/4.8.3/../../../../pic32mx/lib\libpic32.a(vector7.o)
 .reginfo       0x00000000       0x18 c:/program files (x86)/microchip/xc32/v2.15/bin/bin/../../lib/gcc/pic32mx/4.8.3/../../../../pic32mx/lib\libpic32.a(vector7.o)
 .text          0x00000000        0x0 c:/program files (x86)/microchip/xc32/v2.15/bin/bin/../../lib/gcc/pic32mx/4.8.3/../../../../pic32mx/lib\libpic32.a(vector9.o)
 .data          0x00000000        0x0 c:/program files (x86)/microchip/xc32/v2.15/bin/bin/../../lib/gcc/pic32mx/4.8.3/../../../../pic32mx/lib\libpic32.a(vector9.o)
 .bss           0x00000000        0x0 c:/program files (x86)/microchip/xc32/v2.15/bin/bin/../../lib/gcc/pic32mx/4.8.3/../../../../pic32mx/lib\libpic32.a(vector9.o)
 .reginfo       0x00000000       0x18 c:/program files (x86)/microchip/xc32/v2.15/bin/bin/../../lib/gcc/pic32mx/4.8.3/../../../../pic32mx/lib\libpic32.a(vector9.o)
 .text          0x00000000        0x0 c:/program files (x86)/microchip/xc32/v2.15/bin/bin/../../lib/gcc/pic32mx/4.8.3/../../../../pic32mx/lib\libpic32.a(vector10.o)
 .data          0x00000000        0x0 c:/program files (x86)/microchip/xc32/v2.15/bin/bin/../../lib/gcc/pic32mx/4.8.3/../../../../pic32mx/lib\libpic32.a(vector10.o)
 .bss           0x00000000        0x0 c:/program files (x86)/microchip/xc32/v2.15/bin/bin/../../lib/gcc/pic32mx/4.8.3/../../../../pic32mx/lib\libpic32.a(vector10.o)
 .reginfo       0x00000000       0x18 c:/program files (x86)/microchip/xc32/v2.15/bin/bin/../../lib/gcc/pic32mx/4.8.3/../../../../pic32mx/lib\libpic32.a(vector10.o)
 .text          0x00000000        0x0 c:/program files (x86)/microchip/xc32/v2.15/bin/bin/../../lib/gcc/pic32mx/4.8.3/../../../../pic32mx/lib\libpic32.a(vector11.o)
 .data          0x00000000        0x0 c:/program files (x86)/microchip/xc32/v2.15/bin/bin/../../lib/gcc/pic32mx/4.8.3/../../../../pic32mx/lib\libpic32.a(vector11.o)
 .bss           0x00000000        0x0 c:/program files (x86)/microchip/xc32/v2.15/bin/bin/../../lib/gcc/pic32mx/4.8.3/../../../../pic32mx/lib\libpic32.a(vector11.o)
 .reginfo       0x00000000       0x18 c:/program files (x86)/microchip/xc32/v2.15/bin/bin/../../lib/gcc/pic32mx/4.8.3/../../../../pic32mx/lib\libpic32.a(vector11.o)
 .text          0x00000000        0x0 c:/program files (x86)/microchip/xc32/v2.15/bin/bin/../../lib/gcc/pic32mx/4.8.3/../../../../pic32mx/lib\libpic32.a(vector13.o)
 .data          0x00000000        0x0 c:/program files (x86)/microchip/xc32/v2.15/bin/bin/../../lib/gcc/pic32mx/4.8.3/../../../../pic32mx/lib\libpic32.a(vector13.o)
 .bss           0x00000000        0x0 c:/program files (x86)/microchip/xc32/v2.15/bin/bin/../../lib/gcc/pic32mx/4.8.3/../../../../pic32mx/lib\libpic32.a(vector13.o)
 .reginfo       0x00000000       0x18 c:/program files (x86)/microchip/xc32/v2.15/bin/bin/../../lib/gcc/pic32mx/4.8.3/../../../../pic32mx/lib\libpic32.a(vector13.o)
 .text          0x00000000        0x0 c:/program files (x86)/microchip/xc32/v2.15/bin/bin/../../lib/gcc/pic32mx/4.8.3/../../../../pic32mx/lib\libpic32.a(vector14.o)
 .data          0x00000000        0x0 c:/program files (x86)/microchip/xc32/v2.15/bin/bin/../../lib/gcc/pic32mx/4.8.3/../../../../pic32mx/lib\libpic32.a(vector14.o)
 .bss           0x00000000        0x0 c:/program files (x86)/microchip/xc32/v2.15/bin/bin/../../lib/gcc/pic32mx/4.8.3/../../../../pic32mx/lib\libpic32.a(vector14.o)
 .reginfo       0x00000000       0x18 c:/program files (x86)/microchip/xc32/v2.15/bin/bin/../../lib/gcc/pic32mx/4.8.3/../../../../pic32mx/lib\libpic32.a(vector14.o)
 .text          0x00000000        0x0 c:/program files (x86)/microchip/xc32/v2.15/bin/bin/../../lib/gcc/pic32mx/4.8.3/../../../../pic32mx/lib\libpic32.a(vector15.o)
 .data          0x00000000        0x0 c:/program files (x86)/microchip/xc32/v2.15/bin/bin/../../lib/gcc/pic32mx/4.8.3/../../../../pic32mx/lib\libpic32.a(vector15.o)
 .bss           0x00000000        0x0 c:/program files (x86)/microchip/xc32/v2.15/bin/bin/../../lib/gcc/pic32mx/4.8.3/../../../../pic32mx/lib\libpic32.a(vector15.o)
 .reginfo       0x00000000       0x18 c:/program files (x86)/microchip/xc32/v2.15/bin/bin/../../lib/gcc/pic32mx/4.8.3/../../../../pic32mx/lib\libpic32.a(vector15.o)
 .text          0x00000000        0x0 c:/program files (x86)/microchip/xc32/v2.15/bin/bin/../../lib/gcc/pic32mx/4.8.3/../../../../pic32mx/lib\libpic32.a(vector16.o)
 .data          0x00000000        0x0 c:/program files (x86)/microchip/xc32/v2.15/bin/bin/../../lib/gcc/pic32mx/4.8.3/../../../../pic32mx/lib\libpic32.a(vector16.o)
 .bss           0x00000000        0x0 c:/program files (x86)/microchip/xc32/v2.15/bin/bin/../../lib/gcc/pic32mx/4.8.3/../../../../pic32mx/lib\libpic32.a(vector16.o)
 .reginfo       0x00000000       0x18 c:/program files (x86)/microchip/xc32/v2.15/bin/bin/../../lib/gcc/pic32mx/4.8.3/../../../../pic32mx/lib\libpic32.a(vector16.o)
 .text          0x00000000        0x0 c:/program files (x86)/microchip/xc32/v2.15/bin/bin/../../lib/gcc/pic32mx/4.8.3/../../../../pic32mx/lib\libpic32.a(vector17.o)
 .data          0x00000000        0x0 c:/program files (x86)/microchip/xc32/v2.15/bin/bin/../../lib/gcc/pic32mx/4.8.3/../../../../pic32mx/lib\libpic32.a(vector17.o)
 .bss           0x00000000        0x0 c:/program files (x86)/microchip/xc32/v2.15/bin/bin/../../lib/gcc/pic32mx/4.8.3/../../../../pic32mx/lib\libpic32.a(vector17.o)
 .reginfo       0x00000000       0x18 c:/program files (x86)/microchip/xc32/v2.15/bin/bin/../../lib/gcc/pic32mx/4.8.3/../../../../pic32mx/lib\libpic32.a(vector17.o)
 .text          0x00000000        0x0 c:/program files (x86)/microchip/xc32/v2.15/bin/bin/../../lib/gcc/pic32mx/4.8.3/../../../../pic32mx/lib\libpic32.a(vector18.o)
 .data          0x00000000        0x0 c:/program files (x86)/microchip/xc32/v2.15/bin/bin/../../lib/gcc/pic32mx/4.8.3/../../../../pic32mx/lib\libpic32.a(vector18.o)
 .bss           0x00000000        0x0 c:/program files (x86)/microchip/xc32/v2.15/bin/bin/../../lib/gcc/pic32mx/4.8.3/../../../../pic32mx/lib\libpic32.a(vector18.o)
 .reginfo       0x00000000       0x18 c:/program files (x86)/microchip/xc32/v2.15/bin/bin/../../lib/gcc/pic32mx/4.8.3/../../../../pic32mx/lib\libpic32.a(vector18.o)
 .text          0x00000000        0x0 c:/program files (x86)/microchip/xc32/v2.15/bin/bin/../../lib/gcc/pic32mx/4.8.3/../../../../pic32mx/lib\libpic32.a(vector19.o)
 .data          0x00000000        0x0 c:/program files (x86)/microchip/xc32/v2.15/bin/bin/../../lib/gcc/pic32mx/4.8.3/../../../../pic32mx/lib\libpic32.a(vector19.o)
 .bss           0x00000000        0x0 c:/program files (x86)/microchip/xc32/v2.15/bin/bin/../../lib/gcc/pic32mx/4.8.3/../../../../pic32mx/lib\libpic32.a(vector19.o)
 .reginfo       0x00000000       0x18 c:/program files (x86)/microchip/xc32/v2.15/bin/bin/../../lib/gcc/pic32mx/4.8.3/../../../../pic32mx/lib\libpic32.a(vector19.o)
 .text          0x00000000        0x0 c:/program files (x86)/microchip/xc32/v2.15/bin/bin/../../lib/gcc/pic32mx/4.8.3/../../../../pic32mx/lib\libpic32.a(vector20.o)
 .data          0x00000000        0x0 c:/program files (x86)/microchip/xc32/v2.15/bin/bin/../../lib/gcc/pic32mx/4.8.3/../../../../pic32mx/lib\libpic32.a(vector20.o)
 .bss           0x00000000        0x0 c:/program files (x86)/microchip/xc32/v2.15/bin/bin/../../lib/gcc/pic32mx/4.8.3/../../../../pic32mx/lib\libpic32.a(vector20.o)
 .reginfo       0x00000000       0x18 c:/program files (x86)/microchip/xc32/v2.15/bin/bin/../../lib/gcc/pic32mx/4.8.3/../../../../pic32mx/lib\libpic32.a(vector20.o)
 .text          0x00000000        0x0 c:/program files (x86)/microchip/xc32/v2.15/bin/bin/../../lib/gcc/pic32mx/4.8.3/../../../../pic32mx/lib\libpic32.a(vector21.o)
 .data          0x00000000        0x0 c:/program files (x86)/microchip/xc32/v2.15/bin/bin/../../lib/gcc/pic32mx/4.8.3/../../../../pic32mx/lib\libpic32.a(vector21.o)
 .bss           0x00000000        0x0 c:/program files (x86)/microchip/xc32/v2.15/bin/bin/../../lib/gcc/pic32mx/4.8.3/../../../../pic32mx/lib\libpic32.a(vector21.o)
 .reginfo       0x00000000       0x18 c:/program files (x86)/microchip/xc32/v2.15/bin/bin/../../lib/gcc/pic32mx/4.8.3/../../../../pic32mx/lib\libpic32.a(vector21.o)
 .text          0x00000000        0x0 c:/program files (x86)/microchip/xc32/v2.15/bin/bin/../../lib/gcc/pic32mx/4.8.3/../../../../pic32mx/lib\libpic32.a(vector22.o)
 .data          0x00000000        0x0 c:/program files (x86)/microchip/xc32/v2.15/bin/bin/../../lib/gcc/pic32mx/4.8.3/../../../../pic32mx/lib\libpic32.a(vector22.o)
 .bss           0x00000000        0x0 c:/program files (x86)/microchip/xc32/v2.15/bin/bin/../../lib/gcc/pic32mx/4.8.3/../../../../pic32mx/lib\libpic32.a(vector22.o)
 .reginfo       0x00000000       0x18 c:/program files (x86)/microchip/xc32/v2.15/bin/bin/../../lib/gcc/pic32mx/4.8.3/../../../../pic32mx/lib\libpic32.a(vector22.o)
 .text          0x00000000        0x0 c:/program files (x86)/microchip/xc32/v2.15/bin/bin/../../lib/gcc/pic32mx/4.8.3/../../../../pic32mx/lib\libpic32.a(vector23.o)
 .data          0x00000000        0x0 c:/program files (x86)/microchip/xc32/v2.15/bin/bin/../../lib/gcc/pic32mx/4.8.3/../../../../pic32mx/lib\libpic32.a(vector23.o)
 .bss           0x00000000        0x0 c:/program files (x86)/microchip/xc32/v2.15/bin/bin/../../lib/gcc/pic32mx/4.8.3/../../../../pic32mx/lib\libpic32.a(vector23.o)
 .reginfo       0x00000000       0x18 c:/program files (x86)/microchip/xc32/v2.15/bin/bin/../../lib/gcc/pic32mx/4.8.3/../../../../pic32mx/lib\libpic32.a(vector23.o)
 .text          0x00000000        0x0 c:/program files (x86)/microchip/xc32/v2.15/bin/bin/../../lib/gcc/pic32mx/4.8.3/../../../../pic32mx/lib\libpic32.a(vector25.o)
 .data          0x00000000        0x0 c:/program files (x86)/microchip/xc32/v2.15/bin/bin/../../lib/gcc/pic32mx/4.8.3/../../../../pic32mx/lib\libpic32.a(vector25.o)
 .bss           0x00000000        0x0 c:/program files (x86)/microchip/xc32/v2.15/bin/bin/../../lib/gcc/pic32mx/4.8.3/../../../../pic32mx/lib\libpic32.a(vector25.o)
 .reginfo       0x00000000       0x18 c:/program files (x86)/microchip/xc32/v2.15/bin/bin/../../lib/gcc/pic32mx/4.8.3/../../../../pic32mx/lib\libpic32.a(vector25.o)
 .text          0x00000000        0x0 c:/program files (x86)/microchip/xc32/v2.15/bin/bin/../../lib/gcc/pic32mx/4.8.3/../../../../pic32mx/lib\libpic32.a(vector26.o)
 .data          0x00000000        0x0 c:/program files (x86)/microchip/xc32/v2.15/bin/bin/../../lib/gcc/pic32mx/4.8.3/../../../../pic32mx/lib\libpic32.a(vector26.o)
 .bss           0x00000000        0x0 c:/program files (x86)/microchip/xc32/v2.15/bin/bin/../../lib/gcc/pic32mx/4.8.3/../../../../pic32mx/lib\libpic32.a(vector26.o)
 .reginfo       0x00000000       0x18 c:/program files (x86)/microchip/xc32/v2.15/bin/bin/../../lib/gcc/pic32mx/4.8.3/../../../../pic32mx/lib\libpic32.a(vector26.o)
 .text          0x00000000        0x0 c:/program files (x86)/microchip/xc32/v2.15/bin/bin/../../lib/gcc/pic32mx/4.8.3/../../../../pic32mx/lib\libpic32.a(vector28.o)
 .data          0x00000000        0x0 c:/program files (x86)/microchip/xc32/v2.15/bin/bin/../../lib/gcc/pic32mx/4.8.3/../../../../pic32mx/lib\libpic32.a(vector28.o)
 .bss           0x00000000        0x0 c:/program files (x86)/microchip/xc32/v2.15/bin/bin/../../lib/gcc/pic32mx/4.8.3/../../../../pic32mx/lib\libpic32.a(vector28.o)
 .reginfo       0x00000000       0x18 c:/program files (x86)/microchip/xc32/v2.15/bin/bin/../../lib/gcc/pic32mx/4.8.3/../../../../pic32mx/lib\libpic32.a(vector28.o)
 .text          0x00000000        0x0 c:/program files (x86)/microchip/xc32/v2.15/bin/bin/../../lib/gcc/pic32mx/4.8.3/../../../../pic32mx/lib\libpic32.a(vector29.o)
 .data          0x00000000        0x0 c:/program files (x86)/microchip/xc32/v2.15/bin/bin/../../lib/gcc/pic32mx/4.8.3/../../../../pic32mx/lib\libpic32.a(vector29.o)
 .bss           0x00000000        0x0 c:/program files (x86)/microchip/xc32/v2.15/bin/bin/../../lib/gcc/pic32mx/4.8.3/../../../../pic32mx/lib\libpic32.a(vector29.o)
 .reginfo       0x00000000       0x18 c:/program files (x86)/microchip/xc32/v2.15/bin/bin/../../lib/gcc/pic32mx/4.8.3/../../../../pic32mx/lib\libpic32.a(vector29.o)
 .text          0x00000000        0x0 c:/program files (x86)/microchip/xc32/v2.15/bin/bin/../../lib/gcc/pic32mx/4.8.3/../../../../pic32mx/lib\libpic32.a(vector30.o)
 .data          0x00000000        0x0 c:/program files (x86)/microchip/xc32/v2.15/bin/bin/../../lib/gcc/pic32mx/4.8.3/../../../../pic32mx/lib\libpic32.a(vector30.o)
 .bss           0x00000000        0x0 c:/program files (x86)/microchip/xc32/v2.15/bin/bin/../../lib/gcc/pic32mx/4.8.3/../../../../pic32mx/lib\libpic32.a(vector30.o)
 .reginfo       0x00000000       0x18 c:/program files (x86)/microchip/xc32/v2.15/bin/bin/../../lib/gcc/pic32mx/4.8.3/../../../../pic32mx/lib\libpic32.a(vector30.o)
 .text          0x00000000        0x0 c:/program files (x86)/microchip/xc32/v2.15/bin/bin/../../lib/gcc/pic32mx/4.8.3/../../../../pic32mx/lib\libpic32.a(vector33.o)
 .data          0x00000000        0x0 c:/program files (x86)/microchip/xc32/v2.15/bin/bin/../../lib/gcc/pic32mx/4.8.3/../../../../pic32mx/lib\libpic32.a(vector33.o)
 .bss           0x00000000        0x0 c:/program files (x86)/microchip/xc32/v2.15/bin/bin/../../lib/gcc/pic32mx/4.8.3/../../../../pic32mx/lib\libpic32.a(vector33.o)
 .reginfo       0x00000000       0x18 c:/program files (x86)/microchip/xc32/v2.15/bin/bin/../../lib/gcc/pic32mx/4.8.3/../../../../pic32mx/lib\libpic32.a(vector33.o)
 .text          0x00000000        0x0 c:/program files (x86)/microchip/xc32/v2.15/bin/bin/../../lib/gcc/pic32mx/4.8.3/../../../../pic32mx/lib\libpic32.a(vector34.o)
 .data          0x00000000        0x0 c:/program files (x86)/microchip/xc32/v2.15/bin/bin/../../lib/gcc/pic32mx/4.8.3/../../../../pic32mx/lib\libpic32.a(vector34.o)
 .bss           0x00000000        0x0 c:/program files (x86)/microchip/xc32/v2.15/bin/bin/../../lib/gcc/pic32mx/4.8.3/../../../../pic32mx/lib\libpic32.a(vector34.o)
 .reginfo       0x00000000       0x18 c:/program files (x86)/microchip/xc32/v2.15/bin/bin/../../lib/gcc/pic32mx/4.8.3/../../../../pic32mx/lib\libpic32.a(vector34.o)
 .text          0x00000000        0x0 c:/program files (x86)/microchip/xc32/v2.15/bin/bin/../../lib/gcc/pic32mx/4.8.3/../../../../pic32mx/lib\libpic32.a(vector35.o)
 .data          0x00000000        0x0 c:/program files (x86)/microchip/xc32/v2.15/bin/bin/../../lib/gcc/pic32mx/4.8.3/../../../../pic32mx/lib\libpic32.a(vector35.o)
 .bss           0x00000000        0x0 c:/program files (x86)/microchip/xc32/v2.15/bin/bin/../../lib/gcc/pic32mx/4.8.3/../../../../pic32mx/lib\libpic32.a(vector35.o)
 .reginfo       0x00000000       0x18 c:/program files (x86)/microchip/xc32/v2.15/bin/bin/../../lib/gcc/pic32mx/4.8.3/../../../../pic32mx/lib\libpic32.a(vector35.o)
 .text          0x00000000        0x0 c:/program files (x86)/microchip/xc32/v2.15/bin/bin/../../lib/gcc/pic32mx/4.8.3/../../../../pic32mx/lib\libpic32.a(vector36.o)
 .data          0x00000000        0x0 c:/program files (x86)/microchip/xc32/v2.15/bin/bin/../../lib/gcc/pic32mx/4.8.3/../../../../pic32mx/lib\libpic32.a(vector36.o)
 .bss           0x00000000        0x0 c:/program files (x86)/microchip/xc32/v2.15/bin/bin/../../lib/gcc/pic32mx/4.8.3/../../../../pic32mx/lib\libpic32.a(vector36.o)
 .reginfo       0x00000000       0x18 c:/program files (x86)/microchip/xc32/v2.15/bin/bin/../../lib/gcc/pic32mx/4.8.3/../../../../pic32mx/lib\libpic32.a(vector36.o)
 .text          0x00000000        0x0 c:/program files (x86)/microchip/xc32/v2.15/bin/bin/../../lib/gcc/pic32mx/4.8.3/../../../../pic32mx/lib\libpic32.a(vector37.o)
 .data          0x00000000        0x0 c:/program files (x86)/microchip/xc32/v2.15/bin/bin/../../lib/gcc/pic32mx/4.8.3/../../../../pic32mx/lib\libpic32.a(vector37.o)
 .bss           0x00000000        0x0 c:/program files (x86)/microchip/xc32/v2.15/bin/bin/../../lib/gcc/pic32mx/4.8.3/../../../../pic32mx/lib\libpic32.a(vector37.o)
 .reginfo       0x00000000       0x18 c:/program files (x86)/microchip/xc32/v2.15/bin/bin/../../lib/gcc/pic32mx/4.8.3/../../../../pic32mx/lib\libpic32.a(vector37.o)
 .text          0x00000000        0x0 c:/program files (x86)/microchip/xc32/v2.15/bin/bin/../../lib/gcc/pic32mx/4.8.3/../../../../pic32mx/lib\libpic32.a(vector38.o)
 .data          0x00000000        0x0 c:/program files (x86)/microchip/xc32/v2.15/bin/bin/../../lib/gcc/pic32mx/4.8.3/../../../../pic32mx/lib\libpic32.a(vector38.o)
 .bss           0x00000000        0x0 c:/program files (x86)/microchip/xc32/v2.15/bin/bin/../../lib/gcc/pic32mx/4.8.3/../../../../pic32mx/lib\libpic32.a(vector38.o)
 .reginfo       0x00000000       0x18 c:/program files (x86)/microchip/xc32/v2.15/bin/bin/../../lib/gcc/pic32mx/4.8.3/../../../../pic32mx/lib\libpic32.a(vector38.o)
 .text          0x00000000        0x0 c:/program files (x86)/microchip/xc32/v2.15/bin/bin/../../lib/gcc/pic32mx/4.8.3/../../../../pic32mx/lib\libpic32.a(vector39.o)
 .data          0x00000000        0x0 c:/program files (x86)/microchip/xc32/v2.15/bin/bin/../../lib/gcc/pic32mx/4.8.3/../../../../pic32mx/lib\libpic32.a(vector39.o)
 .bss           0x00000000        0x0 c:/program files (x86)/microchip/xc32/v2.15/bin/bin/../../lib/gcc/pic32mx/4.8.3/../../../../pic32mx/lib\libpic32.a(vector39.o)
 .reginfo       0x00000000       0x18 c:/program files (x86)/microchip/xc32/v2.15/bin/bin/../../lib/gcc/pic32mx/4.8.3/../../../../pic32mx/lib\libpic32.a(vector39.o)
 .text          0x00000000        0x0 c:/program files (x86)/microchip/xc32/v2.15/bin/bin/../../lib/gcc/pic32mx/4.8.3/../../../../pic32mx/lib\libpic32.a(vector40.o)
 .data          0x00000000        0x0 c:/program files (x86)/microchip/xc32/v2.15/bin/bin/../../lib/gcc/pic32mx/4.8.3/../../../../pic32mx/lib\libpic32.a(vector40.o)
 .bss           0x00000000        0x0 c:/program files (x86)/microchip/xc32/v2.15/bin/bin/../../lib/gcc/pic32mx/4.8.3/../../../../pic32mx/lib\libpic32.a(vector40.o)
 .reginfo       0x00000000       0x18 c:/program files (x86)/microchip/xc32/v2.15/bin/bin/../../lib/gcc/pic32mx/4.8.3/../../../../pic32mx/lib\libpic32.a(vector40.o)
 .text          0x00000000        0x0 c:/program files (x86)/microchip/xc32/v2.15/bin/bin/../../lib/gcc/pic32mx/4.8.3/../../../../pic32mx/lib\libpic32.a(vector41.o)
 .data          0x00000000        0x0 c:/program files (x86)/microchip/xc32/v2.15/bin/bin/../../lib/gcc/pic32mx/4.8.3/../../../../pic32mx/lib\libpic32.a(vector41.o)
 .bss           0x00000000        0x0 c:/program files (x86)/microchip/xc32/v2.15/bin/bin/../../lib/gcc/pic32mx/4.8.3/../../../../pic32mx/lib\libpic32.a(vector41.o)
 .reginfo       0x00000000       0x18 c:/program files (x86)/microchip/xc32/v2.15/bin/bin/../../lib/gcc/pic32mx/4.8.3/../../../../pic32mx/lib\libpic32.a(vector41.o)
 .text          0x00000000        0x0 c:/program files (x86)/microchip/xc32/v2.15/bin/bin/../../lib/gcc/pic32mx/4.8.3/../../../../pic32mx/lib\libpic32.a(vector42.o)
 .data          0x00000000        0x0 c:/program files (x86)/microchip/xc32/v2.15/bin/bin/../../lib/gcc/pic32mx/4.8.3/../../../../pic32mx/lib\libpic32.a(vector42.o)
 .bss           0x00000000        0x0 c:/program files (x86)/microchip/xc32/v2.15/bin/bin/../../lib/gcc/pic32mx/4.8.3/../../../../pic32mx/lib\libpic32.a(vector42.o)
 .reginfo       0x00000000       0x18 c:/program files (x86)/microchip/xc32/v2.15/bin/bin/../../lib/gcc/pic32mx/4.8.3/../../../../pic32mx/lib\libpic32.a(vector42.o)
 .text          0x00000000        0x0 c:/program files (x86)/microchip/xc32/v2.15/bin/bin/../../lib/gcc/pic32mx/4.8.3/../../../../pic32mx/lib\libpic32.a(vector43.o)
 .data          0x00000000        0x0 c:/program files (x86)/microchip/xc32/v2.15/bin/bin/../../lib/gcc/pic32mx/4.8.3/../../../../pic32mx/lib\libpic32.a(vector43.o)
 .bss           0x00000000        0x0 c:/program files (x86)/microchip/xc32/v2.15/bin/bin/../../lib/gcc/pic32mx/4.8.3/../../../../pic32mx/lib\libpic32.a(vector43.o)
 .reginfo       0x00000000       0x18 c:/program files (x86)/microchip/xc32/v2.15/bin/bin/../../lib/gcc/pic32mx/4.8.3/../../../../pic32mx/lib\libpic32.a(vector43.o)
 .text          0x00000000        0x0 c:/program files (x86)/microchip/xc32/v2.15/bin/bin/../../lib/gcc/pic32mx/4.8.3/../../../../pic32mx/lib\libpic32.a(vector44.o)
 .data          0x00000000        0x0 c:/program files (x86)/microchip/xc32/v2.15/bin/bin/../../lib/gcc/pic32mx/4.8.3/../../../../pic32mx/lib\libpic32.a(vector44.o)
 .bss           0x00000000        0x0 c:/program files (x86)/microchip/xc32/v2.15/bin/bin/../../lib/gcc/pic32mx/4.8.3/../../../../pic32mx/lib\libpic32.a(vector44.o)
 .reginfo       0x00000000       0x18 c:/program files (x86)/microchip/xc32/v2.15/bin/bin/../../lib/gcc/pic32mx/4.8.3/../../../../pic32mx/lib\libpic32.a(vector44.o)
 .text          0x00000000        0x0 c:/program files (x86)/microchip/xc32/v2.15/bin/bin/../../lib/gcc/pic32mx/4.8.3/../../../../pic32mx/lib\libpic32.a(vector45.o)
 .data          0x00000000        0x0 c:/program files (x86)/microchip/xc32/v2.15/bin/bin/../../lib/gcc/pic32mx/4.8.3/../../../../pic32mx/lib\libpic32.a(vector45.o)
 .bss           0x00000000        0x0 c:/program files (x86)/microchip/xc32/v2.15/bin/bin/../../lib/gcc/pic32mx/4.8.3/../../../../pic32mx/lib\libpic32.a(vector45.o)
 .reginfo       0x00000000       0x18 c:/program files (x86)/microchip/xc32/v2.15/bin/bin/../../lib/gcc/pic32mx/4.8.3/../../../../pic32mx/lib\libpic32.a(vector45.o)
 .text          0x00000000        0x0 c:/program files (x86)/microchip/xc32/v2.15/bin/bin/../../lib/gcc/pic32mx/4.8.3/../../../../pic32mx/lib\libpic32.a(vector46.o)
 .data          0x00000000        0x0 c:/program files (x86)/microchip/xc32/v2.15/bin/bin/../../lib/gcc/pic32mx/4.8.3/../../../../pic32mx/lib\libpic32.a(vector46.o)
 .bss           0x00000000        0x0 c:/program files (x86)/microchip/xc32/v2.15/bin/bin/../../lib/gcc/pic32mx/4.8.3/../../../../pic32mx/lib\libpic32.a(vector46.o)
 .reginfo       0x00000000       0x18 c:/program files (x86)/microchip/xc32/v2.15/bin/bin/../../lib/gcc/pic32mx/4.8.3/../../../../pic32mx/lib\libpic32.a(vector46.o)
 .text          0x00000000        0x0 c:/program files (x86)/microchip/xc32/v2.15/bin/bin/../../lib/gcc/pic32mx/4.8.3/../../../../pic32mx/lib\libpic32.a(vector47.o)
 .data          0x00000000        0x0 c:/program files (x86)/microchip/xc32/v2.15/bin/bin/../../lib/gcc/pic32mx/4.8.3/../../../../pic32mx/lib\libpic32.a(vector47.o)
 .bss           0x00000000        0x0 c:/program files (x86)/microchip/xc32/v2.15/bin/bin/../../lib/gcc/pic32mx/4.8.3/../../../../pic32mx/lib\libpic32.a(vector47.o)
 .reginfo       0x00000000       0x18 c:/program files (x86)/microchip/xc32/v2.15/bin/bin/../../lib/gcc/pic32mx/4.8.3/../../../../pic32mx/lib\libpic32.a(vector47.o)
 .text          0x00000000        0x0 c:/program files (x86)/microchip/xc32/v2.15/bin/bin/../../lib/gcc/pic32mx/4.8.3/../../../../pic32mx/lib\libpic32.a(vector48.o)
 .data          0x00000000        0x0 c:/program files (x86)/microchip/xc32/v2.15/bin/bin/../../lib/gcc/pic32mx/4.8.3/../../../../pic32mx/lib\libpic32.a(vector48.o)
 .bss           0x00000000        0x0 c:/program files (x86)/microchip/xc32/v2.15/bin/bin/../../lib/gcc/pic32mx/4.8.3/../../../../pic32mx/lib\libpic32.a(vector48.o)
 .reginfo       0x00000000       0x18 c:/program files (x86)/microchip/xc32/v2.15/bin/bin/../../lib/gcc/pic32mx/4.8.3/../../../../pic32mx/lib\libpic32.a(vector48.o)
 .text          0x00000000        0x0 c:/program files (x86)/microchip/xc32/v2.15/bin/bin/../../lib/gcc/pic32mx/4.8.3/../../../../pic32mx/lib\libpic32.a(vector50.o)
 .data          0x00000000        0x0 c:/program files (x86)/microchip/xc32/v2.15/bin/bin/../../lib/gcc/pic32mx/4.8.3/../../../../pic32mx/lib\libpic32.a(vector50.o)
 .bss           0x00000000        0x0 c:/program files (x86)/microchip/xc32/v2.15/bin/bin/../../lib/gcc/pic32mx/4.8.3/../../../../pic32mx/lib\libpic32.a(vector50.o)
 .reginfo       0x00000000       0x18 c:/program files (x86)/microchip/xc32/v2.15/bin/bin/../../lib/gcc/pic32mx/4.8.3/../../../../pic32mx/lib\libpic32.a(vector50.o)
 .text          0x00000000        0x0 c:/program files (x86)/microchip/xc32/v2.15/bin/bin/../../lib/gcc/pic32mx/4.8.3/../../../../pic32mx/lib\libpic32.a(vector51.o)
 .data          0x00000000        0x0 c:/program files (x86)/microchip/xc32/v2.15/bin/bin/../../lib/gcc/pic32mx/4.8.3/../../../../pic32mx/lib\libpic32.a(vector51.o)
 .bss           0x00000000        0x0 c:/program files (x86)/microchip/xc32/v2.15/bin/bin/../../lib/gcc/pic32mx/4.8.3/../../../../pic32mx/lib\libpic32.a(vector51.o)
 .reginfo       0x00000000       0x18 c:/program files (x86)/microchip/xc32/v2.15/bin/bin/../../lib/gcc/pic32mx/4.8.3/../../../../pic32mx/lib\libpic32.a(vector51.o)
 .text          0x00000000        0x0 c:/program files (x86)/microchip/xc32/v2.15/bin/bin/../../lib/gcc/pic32mx/4.8.3/../../../../pic32mx/lib\libpic32.a(defaultinterrupt.o)
 .data          0x00000000        0x0 c:/program files (x86)/microchip/xc32/v2.15/bin/bin/../../lib/gcc/pic32mx/4.8.3/../../../../pic32mx/lib\libpic32.a(defaultinterrupt.o)
 .bss           0x00000000        0x0 c:/program files (x86)/microchip/xc32/v2.15/bin/bin/../../lib/gcc/pic32mx/4.8.3/../../../../pic32mx/lib\libpic32.a(defaultinterrupt.o)
 .reginfo       0x00000000       0x18 c:/program files (x86)/microchip/xc32/v2.15/bin/bin/../../lib/gcc/pic32mx/4.8.3/../../../../pic32mx/lib\libpic32.a(defaultinterrupt.o)
 .text          0x00000000        0x0 c:/program files (x86)/microchip/xc32/v2.15/bin/bin/../../lib/gcc/pic32mx/4.8.3/../../../../pic32mx/lib\libc.a(ctypef.o)
 .data          0x00000000        0x0 c:/program files (x86)/microchip/xc32/v2.15/bin/bin/../../lib/gcc/pic32mx/4.8.3/../../../../pic32mx/lib\libc.a(ctypef.o)
 .bss           0x00000000        0x0 c:/program files (x86)/microchip/xc32/v2.15/bin/bin/../../lib/gcc/pic32mx/4.8.3/../../../../pic32mx/lib\libc.a(ctypef.o)
 .reginfo       0x00000000       0x18 c:/program files (x86)/microchip/xc32/v2.15/bin/bin/../../lib/gcc/pic32mx/4.8.3/../../../../pic32mx/lib\libc.a(ctypef.o)
 .text.toupper  0x00000000       0x24 c:/program files (x86)/microchip/xc32/v2.15/bin/bin/../../lib/gcc/pic32mx/4.8.3/../../../../pic32mx/lib\libc.a(ctypef.o)
 .text.isalnum  0x00000000       0x18 c:/program files (x86)/microchip/xc32/v2.15/bin/bin/../../lib/gcc/pic32mx/4.8.3/../../../../pic32mx/lib\libc.a(ctypef.o)
 .text.isalpha  0x00000000       0x18 c:/program files (x86)/microchip/xc32/v2.15/bin/bin/../../lib/gcc/pic32mx/4.8.3/../../../../pic32mx/lib\libc.a(ctypef.o)
 .text.isascii  0x00000000        0x8 c:/program files (x86)/microchip/xc32/v2.15/bin/bin/../../lib/gcc/pic32mx/4.8.3/../../../../pic32mx/lib\libc.a(ctypef.o)
 .text.iscntrl  0x00000000       0x18 c:/program files (x86)/microchip/xc32/v2.15/bin/bin/../../lib/gcc/pic32mx/4.8.3/../../../../pic32mx/lib\libc.a(ctypef.o)
 .text.isdigit  0x00000000       0x18 c:/program files (x86)/microchip/xc32/v2.15/bin/bin/../../lib/gcc/pic32mx/4.8.3/../../../../pic32mx/lib\libc.a(ctypef.o)
 .text.isgraph  0x00000000       0x18 c:/program files (x86)/microchip/xc32/v2.15/bin/bin/../../lib/gcc/pic32mx/4.8.3/../../../../pic32mx/lib\libc.a(ctypef.o)
 .text.islower  0x00000000       0x18 c:/program files (x86)/microchip/xc32/v2.15/bin/bin/../../lib/gcc/pic32mx/4.8.3/../../../../pic32mx/lib\libc.a(ctypef.o)
 .text.isprint  0x00000000       0x18 c:/program files (x86)/microchip/xc32/v2.15/bin/bin/../../lib/gcc/pic32mx/4.8.3/../../../../pic32mx/lib\libc.a(ctypef.o)
 .text.ispunct  0x00000000       0x18 c:/program files (x86)/microchip/xc32/v2.15/bin/bin/../../lib/gcc/pic32mx/4.8.3/../../../../pic32mx/lib\libc.a(ctypef.o)
 .text.isspace  0x00000000       0x18 c:/program files (x86)/microchip/xc32/v2.15/bin/bin/../../lib/gcc/pic32mx/4.8.3/../../../../pic32mx/lib\libc.a(ctypef.o)
 .text.isupper  0x00000000       0x18 c:/program files (x86)/microchip/xc32/v2.15/bin/bin/../../lib/gcc/pic32mx/4.8.3/../../../../pic32mx/lib\libc.a(ctypef.o)
 .text.isxdigit
                0x00000000       0x18 c:/program files (x86)/microchip/xc32/v2.15/bin/bin/../../lib/gcc/pic32mx/4.8.3/../../../../pic32mx/lib\libc.a(ctypef.o)
 .text.toascii  0x00000000        0x8 c:/program files (x86)/microchip/xc32/v2.15/bin/bin/../../lib/gcc/pic32mx/4.8.3/../../../../pic32mx/lib\libc.a(ctypef.o)
 .text._tolower
                0x00000000        0x8 c:/program files (x86)/microchip/xc32/v2.15/bin/bin/../../lib/gcc/pic32mx/4.8.3/../../../../pic32mx/lib\libc.a(ctypef.o)
 .text._toupper
                0x00000000        0x8 c:/program files (x86)/microchip/xc32/v2.15/bin/bin/../../lib/gcc/pic32mx/4.8.3/../../../../pic32mx/lib\libc.a(ctypef.o)
 .text          0x00000000        0x0 c:/program files (x86)/microchip/xc32/v2.15/bin/bin/../../lib/gcc/pic32mx/4.8.3/../../../../pic32mx/lib\libc.a(malloc.o)
 .data          0x00000000        0x0 c:/program files (x86)/microchip/xc32/v2.15/bin/bin/../../lib/gcc/pic32mx/4.8.3/../../../../pic32mx/lib\libc.a(malloc.o)
 .bss           0x00000000       0x20 c:/program files (x86)/microchip/xc32/v2.15/bin/bin/../../lib/gcc/pic32mx/4.8.3/../../../../pic32mx/lib\libc.a(malloc.o)
 .reginfo       0x00000000       0x18 c:/program files (x86)/microchip/xc32/v2.15/bin/bin/../../lib/gcc/pic32mx/4.8.3/../../../../pic32mx/lib\libc.a(malloc.o)
 .text.malloc   0x00000000      0x28c c:/program files (x86)/microchip/xc32/v2.15/bin/bin/../../lib/gcc/pic32mx/4.8.3/../../../../pic32mx/lib\libc.a(malloc.o)
 .text.free     0x00000000       0x30 c:/program files (x86)/microchip/xc32/v2.15/bin/bin/../../lib/gcc/pic32mx/4.8.3/../../../../pic32mx/lib\libc.a(malloc.o)
 .text.realloc  0x00000000      0x148 c:/program files (x86)/microchip/xc32/v2.15/bin/bin/../../lib/gcc/pic32mx/4.8.3/../../../../pic32mx/lib\libc.a(malloc.o)
 .text          0x00000000        0x0 c:/program files (x86)/microchip/xc32/v2.15/bin/bin/../../lib/gcc/pic32mx/4.8.3/../../../../pic32mx/lib\libc.a(strcat.o)
 .data          0x00000000        0x0 c:/program files (x86)/microchip/xc32/v2.15/bin/bin/../../lib/gcc/pic32mx/4.8.3/../../../../pic32mx/lib\libc.a(strcat.o)
 .bss           0x00000000        0x0 c:/program files (x86)/microchip/xc32/v2.15/bin/bin/../../lib/gcc/pic32mx/4.8.3/../../../../pic32mx/lib\libc.a(strcat.o)
 .reginfo       0x00000000       0x18 c:/program files (x86)/microchip/xc32/v2.15/bin/bin/../../lib/gcc/pic32mx/4.8.3/../../../../pic32mx/lib\libc.a(strcat.o)
 .text          0x00000000        0x0 c:/program files (x86)/microchip/xc32/v2.15/bin/bin/../../lib/gcc/pic32mx/4.8.3/../../../../pic32mx/lib\libc.a(strncmp.o)
 .data          0x00000000        0x0 c:/program files (x86)/microchip/xc32/v2.15/bin/bin/../../lib/gcc/pic32mx/4.8.3/../../../../pic32mx/lib\libc.a(strncmp.o)
 .bss           0x00000000        0x0 c:/program files (x86)/microchip/xc32/v2.15/bin/bin/../../lib/gcc/pic32mx/4.8.3/../../../../pic32mx/lib\libc.a(strncmp.o)
 .reginfo       0x00000000       0x18 c:/program files (x86)/microchip/xc32/v2.15/bin/bin/../../lib/gcc/pic32mx/4.8.3/../../../../pic32mx/lib\libc.a(strncmp.o)
 .text.strncmp  0x00000000       0x70 c:/program files (x86)/microchip/xc32/v2.15/bin/bin/../../lib/gcc/pic32mx/4.8.3/../../../../pic32mx/lib\libc.a(strncmp.o)
 .text          0x00000000        0x0 c:/program files (x86)/microchip/xc32/v2.15/bin/bin/../../lib/gcc/pic32mx/4.8.3/../../../../pic32mx/lib\libc.a(strtod.o)
 .data          0x00000000        0x0 c:/program files (x86)/microchip/xc32/v2.15/bin/bin/../../lib/gcc/pic32mx/4.8.3/../../../../pic32mx/lib\libc.a(strtod.o)
 .bss           0x00000000        0x0 c:/program files (x86)/microchip/xc32/v2.15/bin/bin/../../lib/gcc/pic32mx/4.8.3/../../../../pic32mx/lib\libc.a(strtod.o)
 .reginfo       0x00000000       0x18 c:/program files (x86)/microchip/xc32/v2.15/bin/bin/../../lib/gcc/pic32mx/4.8.3/../../../../pic32mx/lib\libc.a(strtod.o)
 .text._dstrtod
                0x00000000       0x1c c:/program files (x86)/microchip/xc32/v2.15/bin/bin/../../lib/gcc/pic32mx/4.8.3/../../../../pic32mx/lib\libc.a(strtod.o)
 .text          0x00000000        0x0 c:/program files (x86)/microchip/xc32/v2.15/bin/bin/../../lib/gcc/pic32mx/4.8.3/../../../../pic32mx/lib\libc.a(sprintf_cdgGnopuxX.eo)
 .data          0x00000000        0x0 c:/program files (x86)/microchip/xc32/v2.15/bin/bin/../../lib/gcc/pic32mx/4.8.3/../../../../pic32mx/lib\libc.a(sprintf_cdgGnopuxX.eo)
 .bss           0x00000000        0x0 c:/program files (x86)/microchip/xc32/v2.15/bin/bin/../../lib/gcc/pic32mx/4.8.3/../../../../pic32mx/lib\libc.a(sprintf_cdgGnopuxX.eo)
 .reginfo       0x00000000       0x18 c:/program files (x86)/microchip/xc32/v2.15/bin/bin/../../lib/gcc/pic32mx/4.8.3/../../../../pic32mx/lib\libc.a(sprintf_cdgGnopuxX.eo)
 .text          0x00000000        0x0 c:/program files (x86)/microchip/xc32/v2.15/bin/bin/../../lib/gcc/pic32mx/4.8.3/../../../../pic32mx/lib\libc.a(sscanf_gG.eo)
 .data          0x00000000        0x0 c:/program files (x86)/microchip/xc32/v2.15/bin/bin/../../lib/gcc/pic32mx/4.8.3/../../../../pic32mx/lib\libc.a(sscanf_gG.eo)
 .bss           0x00000000        0x0 c:/program files (x86)/microchip/xc32/v2.15/bin/bin/../../lib/gcc/pic32mx/4.8.3/../../../../pic32mx/lib\libc.a(sscanf_gG.eo)
 .reginfo       0x00000000       0x18 c:/program files (x86)/microchip/xc32/v2.15/bin/bin/../../lib/gcc/pic32mx/4.8.3/../../../../pic32mx/lib\libc.a(sscanf_gG.eo)
 .text          0x00000000        0x0 c:/program files (x86)/microchip/xc32/v2.15/bin/bin/../../lib/gcc/pic32mx/4.8.3/../../../../pic32mx/lib\libc.a(ctype.o)
 .data          0x00000000        0x0 c:/program files (x86)/microchip/xc32/v2.15/bin/bin/../../lib/gcc/pic32mx/4.8.3/../../../../pic32mx/lib\libc.a(ctype.o)
 .bss           0x00000000        0x0 c:/program files (x86)/microchip/xc32/v2.15/bin/bin/../../lib/gcc/pic32mx/4.8.3/../../../../pic32mx/lib\libc.a(ctype.o)
 .reginfo       0x00000000       0x18 c:/program files (x86)/microchip/xc32/v2.15/bin/bin/../../lib/gcc/pic32mx/4.8.3/../../../../pic32mx/lib\libc.a(ctype.o)
 .text          0x00000000        0x0 c:/program files (x86)/microchip/xc32/v2.15/bin/bin/../../lib/gcc/pic32mx/4.8.3/../../../../pic32mx/lib\libc.a(doprnt_cdgGnopuxX.eo)
 .data          0x00000000        0x0 c:/program files (x86)/microchip/xc32/v2.15/bin/bin/../../lib/gcc/pic32mx/4.8.3/../../../../pic32mx/lib\libc.a(doprnt_cdgGnopuxX.eo)
 .bss           0x00000000        0x0 c:/program files (x86)/microchip/xc32/v2.15/bin/bin/../../lib/gcc/pic32mx/4.8.3/../../../../pic32mx/lib\libc.a(doprnt_cdgGnopuxX.eo)
 .reginfo       0x00000000       0x18 c:/program files (x86)/microchip/xc32/v2.15/bin/bin/../../lib/gcc/pic32mx/4.8.3/../../../../pic32mx/lib\libc.a(doprnt_cdgGnopuxX.eo)
 .text          0x00000000        0x0 c:/program files (x86)/microchip/xc32/v2.15/bin/bin/../../lib/gcc/pic32mx/4.8.3/../../../../pic32mx/lib\libc.a(doscan_gG.eo)
 .data          0x00000000        0x0 c:/program files (x86)/microchip/xc32/v2.15/bin/bin/../../lib/gcc/pic32mx/4.8.3/../../../../pic32mx/lib\libc.a(doscan_gG.eo)
 .reginfo       0x00000000       0x18 c:/program files (x86)/microchip/xc32/v2.15/bin/bin/../../lib/gcc/pic32mx/4.8.3/../../../../pic32mx/lib\libc.a(doscan_gG.eo)
 .text          0x00000000        0x0 c:/program files (x86)/microchip/xc32/v2.15/bin/bin/../../lib/gcc/pic32mx/4.8.3/../../../../pic32mx/lib\libc.a(fgetc.o)
 .data          0x00000000        0x0 c:/program files (x86)/microchip/xc32/v2.15/bin/bin/../../lib/gcc/pic32mx/4.8.3/../../../../pic32mx/lib\libc.a(fgetc.o)
 .bss           0x00000000        0x0 c:/program files (x86)/microchip/xc32/v2.15/bin/bin/../../lib/gcc/pic32mx/4.8.3/../../../../pic32mx/lib\libc.a(fgetc.o)
 .reginfo       0x00000000       0x18 c:/program files (x86)/microchip/xc32/v2.15/bin/bin/../../lib/gcc/pic32mx/4.8.3/../../../../pic32mx/lib\libc.a(fgetc.o)
 .text          0x00000000        0x0 c:/program files (x86)/microchip/xc32/v2.15/bin/bin/../../lib/gcc/pic32mx/4.8.3/../../../../pic32mx/lib\libc.a(_fputc_simple.o)
 .data          0x00000000        0x0 c:/program files (x86)/microchip/xc32/v2.15/bin/bin/../../lib/gcc/pic32mx/4.8.3/../../../../pic32mx/lib\libc.a(_fputc_simple.o)
 .bss           0x00000000        0x0 c:/program files (x86)/microchip/xc32/v2.15/bin/bin/../../lib/gcc/pic32mx/4.8.3/../../../../pic32mx/lib\libc.a(_fputc_simple.o)
 .reginfo       0x00000000       0x18 c:/program files (x86)/microchip/xc32/v2.15/bin/bin/../../lib/gcc/pic32mx/4.8.3/../../../../pic32mx/lib\libc.a(_fputc_simple.o)
 .text          0x00000000        0x0 c:/program files (x86)/microchip/xc32/v2.15/bin/bin/../../lib/gcc/pic32mx/4.8.3/../../../../pic32mx/lib\libc.a(atoi.o)
 .data          0x00000000        0x0 c:/program files (x86)/microchip/xc32/v2.15/bin/bin/../../lib/gcc/pic32mx/4.8.3/../../../../pic32mx/lib\libc.a(atoi.o)
 .bss           0x00000000        0x0 c:/program files (x86)/microchip/xc32/v2.15/bin/bin/../../lib/gcc/pic32mx/4.8.3/../../../../pic32mx/lib\libc.a(atoi.o)
 .reginfo       0x00000000       0x18 c:/program files (x86)/microchip/xc32/v2.15/bin/bin/../../lib/gcc/pic32mx/4.8.3/../../../../pic32mx/lib\libc.a(atoi.o)
 .text          0x00000000        0x0 c:/program files (x86)/microchip/xc32/v2.15/bin/bin/../../lib/gcc/pic32mx/4.8.3/../../../../pic32mx/lib\libc.a(ldpowers.o)
 .data          0x00000000        0x0 c:/program files (x86)/microchip/xc32/v2.15/bin/bin/../../lib/gcc/pic32mx/4.8.3/../../../../pic32mx/lib\libc.a(ldpowers.o)
 .bss           0x00000000        0x0 c:/program files (x86)/microchip/xc32/v2.15/bin/bin/../../lib/gcc/pic32mx/4.8.3/../../../../pic32mx/lib\libc.a(ldpowers.o)
 .reginfo       0x00000000       0x18 c:/program files (x86)/microchip/xc32/v2.15/bin/bin/../../lib/gcc/pic32mx/4.8.3/../../../../pic32mx/lib\libc.a(ldpowers.o)
 .text          0x00000000        0x0 c:/program files (x86)/microchip/xc32/v2.15/bin/bin/../../lib/gcc/pic32mx/4.8.3/../../../../pic32mx/lib\libc.a(strtof.o)
 .data          0x00000000        0x0 c:/program files (x86)/microchip/xc32/v2.15/bin/bin/../../lib/gcc/pic32mx/4.8.3/../../../../pic32mx/lib\libc.a(strtof.o)
 .bss           0x00000000        0x0 c:/program files (x86)/microchip/xc32/v2.15/bin/bin/../../lib/gcc/pic32mx/4.8.3/../../../../pic32mx/lib\libc.a(strtof.o)
 .reginfo       0x00000000       0x18 c:/program files (x86)/microchip/xc32/v2.15/bin/bin/../../lib/gcc/pic32mx/4.8.3/../../../../pic32mx/lib\libc.a(strtof.o)
 .text.strtodf  0x00000000       0x1c c:/program files (x86)/microchip/xc32/v2.15/bin/bin/../../lib/gcc/pic32mx/4.8.3/../../../../pic32mx/lib\libc.a(strtof.o)
 .text          0x00000000        0x0 c:/program files (x86)/microchip/xc32/v2.15/bin/bin/../../lib/gcc/pic32mx/4.8.3/../../../../pic32mx/lib\libc.a(ungetc.o)
 .data          0x00000000        0x0 c:/program files (x86)/microchip/xc32/v2.15/bin/bin/../../lib/gcc/pic32mx/4.8.3/../../../../pic32mx/lib\libc.a(ungetc.o)
 .bss           0x00000000        0x0 c:/program files (x86)/microchip/xc32/v2.15/bin/bin/../../lib/gcc/pic32mx/4.8.3/../../../../pic32mx/lib\libc.a(ungetc.o)
 .reginfo       0x00000000       0x18 c:/program files (x86)/microchip/xc32/v2.15/bin/bin/../../lib/gcc/pic32mx/4.8.3/../../../../pic32mx/lib\libc.a(ungetc.o)
 .text          0x00000000        0x0 c:/program files (x86)/microchip/xc32/v2.15/bin/bin/../../lib/gcc/pic32mx/4.8.3/../../../../pic32mx/lib\libc.a(_iob.o)
 .reginfo       0x00000000       0x18 c:/program files (x86)/microchip/xc32/v2.15/bin/bin/../../lib/gcc/pic32mx/4.8.3/../../../../pic32mx/lib\libc.a(_iob.o)
 .text          0x00000000        0x0 c:/program files (x86)/microchip/xc32/v2.15/bin/bin/../../lib/gcc/pic32mx/4.8.3/../../../../pic32mx/lib\libc.a(filbuf.o)
 .data          0x00000000        0x0 c:/program files (x86)/microchip/xc32/v2.15/bin/bin/../../lib/gcc/pic32mx/4.8.3/../../../../pic32mx/lib\libc.a(filbuf.o)
 .bss           0x00000000        0x0 c:/program files (x86)/microchip/xc32/v2.15/bin/bin/../../lib/gcc/pic32mx/4.8.3/../../../../pic32mx/lib\libc.a(filbuf.o)
 .reginfo       0x00000000       0x18 c:/program files (x86)/microchip/xc32/v2.15/bin/bin/../../lib/gcc/pic32mx/4.8.3/../../../../pic32mx/lib\libc.a(filbuf.o)
 .text          0x00000000        0x0 c:/program files (x86)/microchip/xc32/v2.15/bin/bin/../../lib/gcc/pic32mx/4.8.3/../../../../pic32mx/lib\libc.a(_flsbuf_simple.o)
 .data          0x00000000        0x0 c:/program files (x86)/microchip/xc32/v2.15/bin/bin/../../lib/gcc/pic32mx/4.8.3/../../../../pic32mx/lib\libc.a(_flsbuf_simple.o)
 .bss           0x00000000        0x0 c:/program files (x86)/microchip/xc32/v2.15/bin/bin/../../lib/gcc/pic32mx/4.8.3/../../../../pic32mx/lib\libc.a(_flsbuf_simple.o)
 .reginfo       0x00000000       0x18 c:/program files (x86)/microchip/xc32/v2.15/bin/bin/../../lib/gcc/pic32mx/4.8.3/../../../../pic32mx/lib\libc.a(_flsbuf_simple.o)
 .text          0x00000000        0x0 c:/program files (x86)/microchip/xc32/v2.15/bin/bin/../../lib/gcc/pic32mx/4.8.3/../../../../pic32mx/lib\libc.a(fflush.o)
 .data          0x00000000        0x0 c:/program files (x86)/microchip/xc32/v2.15/bin/bin/../../lib/gcc/pic32mx/4.8.3/../../../../pic32mx/lib\libc.a(fflush.o)
 .bss           0x00000000        0x0 c:/program files (x86)/microchip/xc32/v2.15/bin/bin/../../lib/gcc/pic32mx/4.8.3/../../../../pic32mx/lib\libc.a(fflush.o)
 .reginfo       0x00000000       0x18 c:/program files (x86)/microchip/xc32/v2.15/bin/bin/../../lib/gcc/pic32mx/4.8.3/../../../../pic32mx/lib\libc.a(fflush.o)
 .text          0x00000000        0x0 c:/program files (x86)/microchip/xc32/v2.15/bin/bin/../../lib/gcc/pic32mx/4.8.3/../../../../pic32mx/lib\libm.a(dpfrexp.o)
 .data          0x00000000        0x0 c:/program files (x86)/microchip/xc32/v2.15/bin/bin/../../lib/gcc/pic32mx/4.8.3/../../../../pic32mx/lib\libm.a(dpfrexp.o)
 .bss           0x00000000        0x0 c:/program files (x86)/microchip/xc32/v2.15/bin/bin/../../lib/gcc/pic32mx/4.8.3/../../../../pic32mx/lib\libm.a(dpfrexp.o)
 .reginfo       0x00000000       0x18 c:/program files (x86)/microchip/xc32/v2.15/bin/bin/../../lib/gcc/pic32mx/4.8.3/../../../../pic32mx/lib\libm.a(dpfrexp.o)
 .text          0x00000000        0x0 c:/program files (x86)/microchip/xc32/v2.15/bin/bin/../../lib/gcc/pic32mx/4.8.3/../../../../pic32mx/lib\libm.a(dp32div.o)
 .data          0x00000000        0x0 c:/program files (x86)/microchip/xc32/v2.15/bin/bin/../../lib/gcc/pic32mx/4.8.3/../../../../pic32mx/lib\libm.a(dp32div.o)
 .bss           0x00000000        0x0 c:/program files (x86)/microchip/xc32/v2.15/bin/bin/../../lib/gcc/pic32mx/4.8.3/../../../../pic32mx/lib\libm.a(dp32div.o)
 .reginfo       0x00000000       0x18 c:/program files (x86)/microchip/xc32/v2.15/bin/bin/../../lib/gcc/pic32mx/4.8.3/../../../../pic32mx/lib\libm.a(dp32div.o)
 .text          0x00000000        0x0 c:/program files (x86)/microchip/xc32/v2.15/bin/bin/../../lib/gcc/pic32mx/4.8.3/../../../../pic32mx/lib\libm.a(dp32mul.o)
 .data          0x00000000        0x0 c:/program files (x86)/microchip/xc32/v2.15/bin/bin/../../lib/gcc/pic32mx/4.8.3/../../../../pic32mx/lib\libm.a(dp32mul.o)
 .bss           0x00000000        0x0 c:/program files (x86)/microchip/xc32/v2.15/bin/bin/../../lib/gcc/pic32mx/4.8.3/../../../../pic32mx/lib\libm.a(dp32mul.o)
 .reginfo       0x00000000       0x18 c:/program files (x86)/microchip/xc32/v2.15/bin/bin/../../lib/gcc/pic32mx/4.8.3/../../../../pic32mx/lib\libm.a(dp32mul.o)
 .text          0x00000000        0x0 c:/program files (x86)/microchip/xc32/v2.15/bin/bin/../../lib/gcc/pic32mx/4.8.3/../../../../pic32mx/lib\libm.a(dp32subadd.o)
 .data          0x00000000        0x0 c:/program files (x86)/microchip/xc32/v2.15/bin/bin/../../lib/gcc/pic32mx/4.8.3/../../../../pic32mx/lib\libm.a(dp32subadd.o)
 .bss           0x00000000        0x0 c:/program files (x86)/microchip/xc32/v2.15/bin/bin/../../lib/gcc/pic32mx/4.8.3/../../../../pic32mx/lib\libm.a(dp32subadd.o)
 .reginfo       0x00000000       0x18 c:/program files (x86)/microchip/xc32/v2.15/bin/bin/../../lib/gcc/pic32mx/4.8.3/../../../../pic32mx/lib\libm.a(dp32subadd.o)
 .text          0x00000000        0x0 c:/program files (x86)/microchip/xc32/v2.15/bin/bin/../../lib/gcc/pic32mx/4.8.3/../../../../pic32mx/lib\libm.a(dpcmp.o)
 .data          0x00000000        0x0 c:/program files (x86)/microchip/xc32/v2.15/bin/bin/../../lib/gcc/pic32mx/4.8.3/../../../../pic32mx/lib\libm.a(dpcmp.o)
 .bss           0x00000000        0x0 c:/program files (x86)/microchip/xc32/v2.15/bin/bin/../../lib/gcc/pic32mx/4.8.3/../../../../pic32mx/lib\libm.a(dpcmp.o)
 .reginfo       0x00000000       0x18 c:/program files (x86)/microchip/xc32/v2.15/bin/bin/../../lib/gcc/pic32mx/4.8.3/../../../../pic32mx/lib\libm.a(dpcmp.o)
 .text          0x00000000        0x0 c:/program files (x86)/microchip/xc32/v2.15/bin/bin/../../lib/gcc/pic32mx/4.8.3/../../../../pic32mx/lib\libm.a(dptofp.o)
 .data          0x00000000        0x0 c:/program files (x86)/microchip/xc32/v2.15/bin/bin/../../lib/gcc/pic32mx/4.8.3/../../../../pic32mx/lib\libm.a(dptofp.o)
 .bss           0x00000000        0x0 c:/program files (x86)/microchip/xc32/v2.15/bin/bin/../../lib/gcc/pic32mx/4.8.3/../../../../pic32mx/lib\libm.a(dptofp.o)
 .reginfo       0x00000000       0x18 c:/program files (x86)/microchip/xc32/v2.15/bin/bin/../../lib/gcc/pic32mx/4.8.3/../../../../pic32mx/lib\libm.a(dptofp.o)
 .text          0x00000000        0x0 c:/program files (x86)/microchip/xc32/v2.15/bin/bin/../../lib/gcc/pic32mx/4.8.3/../../../../pic32mx/lib\libm.a(dptoul.o)
 .data          0x00000000        0x0 c:/program files (x86)/microchip/xc32/v2.15/bin/bin/../../lib/gcc/pic32mx/4.8.3/../../../../pic32mx/lib\libm.a(dptoul.o)
 .bss           0x00000000        0x0 c:/program files (x86)/microchip/xc32/v2.15/bin/bin/../../lib/gcc/pic32mx/4.8.3/../../../../pic32mx/lib\libm.a(dptoul.o)
 .reginfo       0x00000000       0x18 c:/program files (x86)/microchip/xc32/v2.15/bin/bin/../../lib/gcc/pic32mx/4.8.3/../../../../pic32mx/lib\libm.a(dptoul.o)
 .text          0x00000000        0x0 c:/program files (x86)/microchip/xc32/v2.15/bin/bin/../../lib/gcc/pic32mx/4.8.3/../../../../pic32mx/lib\libm.a(fp32mul.o)
 .data          0x00000000        0x0 c:/program files (x86)/microchip/xc32/v2.15/bin/bin/../../lib/gcc/pic32mx/4.8.3/../../../../pic32mx/lib\libm.a(fp32mul.o)
 .bss           0x00000000        0x0 c:/program files (x86)/microchip/xc32/v2.15/bin/bin/../../lib/gcc/pic32mx/4.8.3/../../../../pic32mx/lib\libm.a(fp32mul.o)
 .reginfo       0x00000000       0x18 c:/program files (x86)/microchip/xc32/v2.15/bin/bin/../../lib/gcc/pic32mx/4.8.3/../../../../pic32mx/lib\libm.a(fp32mul.o)
 .text          0x00000000        0x0 c:/program files (x86)/microchip/xc32/v2.15/bin/bin/../../lib/gcc/pic32mx/4.8.3/../../../../pic32mx/lib\libm.a(fp32subadd.o)
 .data          0x00000000        0x0 c:/program files (x86)/microchip/xc32/v2.15/bin/bin/../../lib/gcc/pic32mx/4.8.3/../../../../pic32mx/lib\libm.a(fp32subadd.o)
 .bss           0x00000000        0x0 c:/program files (x86)/microchip/xc32/v2.15/bin/bin/../../lib/gcc/pic32mx/4.8.3/../../../../pic32mx/lib\libm.a(fp32subadd.o)
 .reginfo       0x00000000       0x18 c:/program files (x86)/microchip/xc32/v2.15/bin/bin/../../lib/gcc/pic32mx/4.8.3/../../../../pic32mx/lib\libm.a(fp32subadd.o)
 .text          0x00000000        0x0 c:/program files (x86)/microchip/xc32/v2.15/bin/bin/../../lib/gcc/pic32mx/4.8.3/../../../../pic32mx/lib\libm.a(fpcmp.o)
 .data          0x00000000        0x0 c:/program files (x86)/microchip/xc32/v2.15/bin/bin/../../lib/gcc/pic32mx/4.8.3/../../../../pic32mx/lib\libm.a(fpcmp.o)
 .bss           0x00000000        0x0 c:/program files (x86)/microchip/xc32/v2.15/bin/bin/../../lib/gcc/pic32mx/4.8.3/../../../../pic32mx/lib\libm.a(fpcmp.o)
 .reginfo       0x00000000       0x18 c:/program files (x86)/microchip/xc32/v2.15/bin/bin/../../lib/gcc/pic32mx/4.8.3/../../../../pic32mx/lib\libm.a(fpcmp.o)
 .text          0x00000000        0x0 c:/program files (x86)/microchip/xc32/v2.15/bin/bin/../../lib/gcc/pic32mx/4.8.3/../../../../pic32mx/lib\libm.a(fptodp.o)
 .data          0x00000000        0x0 c:/program files (x86)/microchip/xc32/v2.15/bin/bin/../../lib/gcc/pic32mx/4.8.3/../../../../pic32mx/lib\libm.a(fptodp.o)
 .bss           0x00000000        0x0 c:/program files (x86)/microchip/xc32/v2.15/bin/bin/../../lib/gcc/pic32mx/4.8.3/../../../../pic32mx/lib\libm.a(fptodp.o)
 .reginfo       0x00000000       0x18 c:/program files (x86)/microchip/xc32/v2.15/bin/bin/../../lib/gcc/pic32mx/4.8.3/../../../../pic32mx/lib\libm.a(fptodp.o)
 .text          0x00000000        0x0 c:/program files (x86)/microchip/xc32/v2.15/bin/bin/../../lib/gcc/pic32mx/4.8.3/../../../../pic32mx/lib\libm.a(fptoli.o)
 .data          0x00000000        0x0 c:/program files (x86)/microchip/xc32/v2.15/bin/bin/../../lib/gcc/pic32mx/4.8.3/../../../../pic32mx/lib\libm.a(fptoli.o)
 .bss           0x00000000        0x0 c:/program files (x86)/microchip/xc32/v2.15/bin/bin/../../lib/gcc/pic32mx/4.8.3/../../../../pic32mx/lib\libm.a(fptoli.o)
 .reginfo       0x00000000       0x18 c:/program files (x86)/microchip/xc32/v2.15/bin/bin/../../lib/gcc/pic32mx/4.8.3/../../../../pic32mx/lib\libm.a(fptoli.o)
 .text          0x00000000        0x0 c:/program files (x86)/microchip/xc32/v2.15/bin/bin/../../lib/gcc/pic32mx/4.8.3/../../../../pic32mx/lib\libm.a(sitofp.o)
 .data          0x00000000        0x0 c:/program files (x86)/microchip/xc32/v2.15/bin/bin/../../lib/gcc/pic32mx/4.8.3/../../../../pic32mx/lib\libm.a(sitofp.o)
 .bss           0x00000000        0x0 c:/program files (x86)/microchip/xc32/v2.15/bin/bin/../../lib/gcc/pic32mx/4.8.3/../../../../pic32mx/lib\libm.a(sitofp.o)
 .reginfo       0x00000000       0x18 c:/program files (x86)/microchip/xc32/v2.15/bin/bin/../../lib/gcc/pic32mx/4.8.3/../../../../pic32mx/lib\libm.a(sitofp.o)
 .text          0x00000000        0x0 c:/program files (x86)/microchip/xc32/v2.15/bin/bin/../../lib/gcc/pic32mx/4.8.3/../../../../pic32mx/lib\libm.a(__strtod.o)
 .data          0x00000000        0x0 c:/program files (x86)/microchip/xc32/v2.15/bin/bin/../../lib/gcc/pic32mx/4.8.3/../../../../pic32mx/lib\libm.a(__strtod.o)
 .bss           0x00000000        0x0 c:/program files (x86)/microchip/xc32/v2.15/bin/bin/../../lib/gcc/pic32mx/4.8.3/../../../../pic32mx/lib\libm.a(__strtod.o)
 .reginfo       0x00000000       0x18 c:/program files (x86)/microchip/xc32/v2.15/bin/bin/../../lib/gcc/pic32mx/4.8.3/../../../../pic32mx/lib\libm.a(__strtod.o)
 .text          0x00000000        0x0 c:/program files (x86)/microchip/xc32/v2.15/bin/bin/../../lib/gcc/pic32mx/4.8.3/../../../../pic32mx/lib\libm.a(__strtof.o)
 .data          0x00000000        0x0 c:/program files (x86)/microchip/xc32/v2.15/bin/bin/../../lib/gcc/pic32mx/4.8.3/../../../../pic32mx/lib\libm.a(__strtof.o)
 .bss           0x00000000        0x0 c:/program files (x86)/microchip/xc32/v2.15/bin/bin/../../lib/gcc/pic32mx/4.8.3/../../../../pic32mx/lib\libm.a(__strtof.o)
 .reginfo       0x00000000       0x18 c:/program files (x86)/microchip/xc32/v2.15/bin/bin/../../lib/gcc/pic32mx/4.8.3/../../../../pic32mx/lib\libm.a(__strtof.o)
 .text          0x00000000        0x0 c:/program files (x86)/microchip/xc32/v2.15/bin/bin/../../lib/gcc/pic32mx/4.8.3/../../../../pic32mx/lib\libm.a(fp32div.o)
 .data          0x00000000        0x0 c:/program files (x86)/microchip/xc32/v2.15/bin/bin/../../lib/gcc/pic32mx/4.8.3/../../../../pic32mx/lib\libm.a(fp32div.o)
 .bss           0x00000000        0x0 c:/program files (x86)/microchip/xc32/v2.15/bin/bin/../../lib/gcc/pic32mx/4.8.3/../../../../pic32mx/lib\libm.a(fp32div.o)
 .reginfo       0x00000000       0x18 c:/program files (x86)/microchip/xc32/v2.15/bin/bin/../../lib/gcc/pic32mx/4.8.3/../../../../pic32mx/lib\libm.a(fp32div.o)
 .text          0x00000000        0x0 c:/program files (x86)/microchip/xc32/v2.15/bin/bin/../../lib/gcc/pic32mx/4.8.3/../../../../pic32mx/lib\libm.a(litodp.o)
 .data          0x00000000        0x0 c:/program files (x86)/microchip/xc32/v2.15/bin/bin/../../lib/gcc/pic32mx/4.8.3/../../../../pic32mx/lib\libm.a(litodp.o)
 .bss           0x00000000        0x0 c:/program files (x86)/microchip/xc32/v2.15/bin/bin/../../lib/gcc/pic32mx/4.8.3/../../../../pic32mx/lib\libm.a(litodp.o)
 .reginfo       0x00000000       0x18 c:/program files (x86)/microchip/xc32/v2.15/bin/bin/../../lib/gcc/pic32mx/4.8.3/../../../../pic32mx/lib\libm.a(litodp.o)
 .text          0x00000000        0x0 c:/program files (x86)/microchip/xc32/v2.15/bin/bin/../../lib/gcc/pic32mx/4.8.3/../../../../pic32mx/lib\libm.a(negdf2.o)
 .data          0x00000000        0x0 c:/program files (x86)/microchip/xc32/v2.15/bin/bin/../../lib/gcc/pic32mx/4.8.3/../../../../pic32mx/lib\libm.a(negdf2.o)
 .bss           0x00000000        0x0 c:/program files (x86)/microchip/xc32/v2.15/bin/bin/../../lib/gcc/pic32mx/4.8.3/../../../../pic32mx/lib\libm.a(negdf2.o)
 .reginfo       0x00000000       0x18 c:/program files (x86)/microchip/xc32/v2.15/bin/bin/../../lib/gcc/pic32mx/4.8.3/../../../../pic32mx/lib\libm.a(negdf2.o)
 .text          0x00000000        0x0 c:/program files (x86)/microchip/xc32/v2.15/bin/bin/../../lib/gcc/pic32mx/4.8.3/../../../../pic32mx/lib\libm.a(negsf2.o)
 .data          0x00000000        0x0 c:/program files (x86)/microchip/xc32/v2.15/bin/bin/../../lib/gcc/pic32mx/4.8.3/../../../../pic32mx/lib\libm.a(negsf2.o)
 .bss           0x00000000        0x0 c:/program files (x86)/microchip/xc32/v2.15/bin/bin/../../lib/gcc/pic32mx/4.8.3/../../../../pic32mx/lib\libm.a(negsf2.o)
 .reginfo       0x00000000       0x18 c:/program files (x86)/microchip/xc32/v2.15/bin/bin/../../lib/gcc/pic32mx/4.8.3/../../../../pic32mx/lib\libm.a(negsf2.o)
 .text          0x00000000        0x0 c:/program files (x86)/microchip/xc32/v2.15/bin/bin/../../lib/gcc/pic32mx/4.8.3/../../../../pic32mx/lib\libe.a(_fixunsdfdi.o)
 .data          0x00000000        0x0 c:/program files (x86)/microchip/xc32/v2.15/bin/bin/../../lib/gcc/pic32mx/4.8.3/../../../../pic32mx/lib\libe.a(_fixunsdfdi.o)
 .bss           0x00000000        0x0 c:/program files (x86)/microchip/xc32/v2.15/bin/bin/../../lib/gcc/pic32mx/4.8.3/../../../../pic32mx/lib\libe.a(_fixunsdfdi.o)
 .reginfo       0x00000000       0x18 c:/program files (x86)/microchip/xc32/v2.15/bin/bin/../../lib/gcc/pic32mx/4.8.3/../../../../pic32mx/lib\libe.a(_fixunsdfdi.o)
 .text          0x00000000        0x0 c:/program files (x86)/microchip/xc32/v2.15/bin/bin/../../lib/gcc/pic32mx/4.8.3/../../../../pic32mx/lib\libe.a(_orderdf2.o)
 .data          0x00000000        0x0 c:/program files (x86)/microchip/xc32/v2.15/bin/bin/../../lib/gcc/pic32mx/4.8.3/../../../../pic32mx/lib\libe.a(_orderdf2.o)
 .bss           0x00000000        0x0 c:/program files (x86)/microchip/xc32/v2.15/bin/bin/../../lib/gcc/pic32mx/4.8.3/../../../../pic32mx/lib\libe.a(_orderdf2.o)
 .reginfo       0x00000000       0x18 c:/program files (x86)/microchip/xc32/v2.15/bin/bin/../../lib/gcc/pic32mx/4.8.3/../../../../pic32mx/lib\libe.a(_orderdf2.o)
 .text          0x00000000        0x0 c:/program files (x86)/microchip/xc32/v2.15/bin/bin/../../lib/gcc/pic32mx/4.8.3/../../../../pic32mx/lib\libe.a(_ldexp.o)
 .data          0x00000000        0x0 c:/program files (x86)/microchip/xc32/v2.15/bin/bin/../../lib/gcc/pic32mx/4.8.3/../../../../pic32mx/lib\libe.a(_ldexp.o)
 .bss           0x00000000        0x0 c:/program files (x86)/microchip/xc32/v2.15/bin/bin/../../lib/gcc/pic32mx/4.8.3/../../../../pic32mx/lib\libe.a(_ldexp.o)
 .reginfo       0x00000000       0x18 c:/program files (x86)/microchip/xc32/v2.15/bin/bin/../../lib/gcc/pic32mx/4.8.3/../../../../pic32mx/lib\libe.a(_ldexp.o)
 .text          0x00000000        0x0 c:/program files (x86)/microchip/xc32/v2.15/bin/bin/../../lib/gcc/pic32mx/4.8.3/../../../../pic32mx/lib\libe.a(_ldexpf.o)
 .data          0x00000000        0x0 c:/program files (x86)/microchip/xc32/v2.15/bin/bin/../../lib/gcc/pic32mx/4.8.3/../../../../pic32mx/lib\libe.a(_ldexpf.o)
 .bss           0x00000000        0x0 c:/program files (x86)/microchip/xc32/v2.15/bin/bin/../../lib/gcc/pic32mx/4.8.3/../../../../pic32mx/lib\libe.a(_ldexpf.o)
 .reginfo       0x00000000       0x18 c:/program files (x86)/microchip/xc32/v2.15/bin/bin/../../lib/gcc/pic32mx/4.8.3/../../../../pic32mx/lib\libe.a(_ldexpf.o)
 .text          0x00000000        0x0 c:/program files (x86)/microchip/xc32/v2.15/bin/bin/../../lib/gcc/pic32mx/4.8.3/../../../../pic32mx/lib\libe.a(_fixdfdi.o)
 .data          0x00000000        0x0 c:/program files (x86)/microchip/xc32/v2.15/bin/bin/../../lib/gcc/pic32mx/4.8.3/../../../../pic32mx/lib\libe.a(_fixdfdi.o)
 .bss           0x00000000        0x0 c:/program files (x86)/microchip/xc32/v2.15/bin/bin/../../lib/gcc/pic32mx/4.8.3/../../../../pic32mx/lib\libe.a(_fixdfdi.o)
 .reginfo       0x00000000       0x18 c:/program files (x86)/microchip/xc32/v2.15/bin/bin/../../lib/gcc/pic32mx/4.8.3/../../../../pic32mx/lib\libe.a(_fixdfdi.o)
 .data          0x00000000        0x0 c:/program files (x86)/microchip/xc32/v2.15/bin/bin/../../lib/gcc/pic32mx/4.8.3\libgcc.a(_lshrdi3.o)
 .bss           0x00000000        0x0 c:/program files (x86)/microchip/xc32/v2.15/bin/bin/../../lib/gcc/pic32mx/4.8.3\libgcc.a(_lshrdi3.o)
 .reginfo       0x00000000       0x18 c:/program files (x86)/microchip/xc32/v2.15/bin/bin/../../lib/gcc/pic32mx/4.8.3\libgcc.a(_lshrdi3.o)
 .data          0x00000000        0x0 c:/program files (x86)/microchip/xc32/v2.15/bin/bin/../../lib/gcc/pic32mx/4.8.3\libgcc.a(_ashldi3.o)
 .bss           0x00000000        0x0 c:/program files (x86)/microchip/xc32/v2.15/bin/bin/../../lib/gcc/pic32mx/4.8.3\libgcc.a(_ashldi3.o)
 .reginfo       0x00000000       0x18 c:/program files (x86)/microchip/xc32/v2.15/bin/bin/../../lib/gcc/pic32mx/4.8.3\libgcc.a(_ashldi3.o)
 .data          0x00000000        0x0 c:/program files (x86)/microchip/xc32/v2.15/bin/bin/../../lib/gcc/pic32mx/4.8.3\libgcc.a(_floatundidf.o)
 .bss           0x00000000        0x0 c:/program files (x86)/microchip/xc32/v2.15/bin/bin/../../lib/gcc/pic32mx/4.8.3\libgcc.a(_floatundidf.o)
 .reginfo       0x00000000       0x18 c:/program files (x86)/microchip/xc32/v2.15/bin/bin/../../lib/gcc/pic32mx/4.8.3\libgcc.a(_floatundidf.o)
 .data          0x00000000        0x0 c:/program files (x86)/microchip/xc32/v2.15/bin/bin/../../lib/gcc/pic32mx/4.8.3\libgcc.a(_udivdi3.o)
 .bss           0x00000000        0x0 c:/program files (x86)/microchip/xc32/v2.15/bin/bin/../../lib/gcc/pic32mx/4.8.3\libgcc.a(_udivdi3.o)
 .reginfo       0x00000000       0x18 c:/program files (x86)/microchip/xc32/v2.15/bin/bin/../../lib/gcc/pic32mx/4.8.3\libgcc.a(_udivdi3.o)
 .data          0x00000000        0x0 c:/program files (x86)/microchip/xc32/v2.15/bin/bin/../../lib/gcc/pic32mx/4.8.3\libgcc.a(_umoddi3.o)
 .bss           0x00000000        0x0 c:/program files (x86)/microchip/xc32/v2.15/bin/bin/../../lib/gcc/pic32mx/4.8.3\libgcc.a(_umoddi3.o)
 .reginfo       0x00000000       0x18 c:/program files (x86)/microchip/xc32/v2.15/bin/bin/../../lib/gcc/pic32mx/4.8.3\libgcc.a(_umoddi3.o)
 .data          0x00000000        0x0 c:/program files (x86)/microchip/xc32/v2.15/bin/bin/../../lib/gcc/pic32mx/4.8.3\libgcc.a(floatunsidf.o)
 .bss           0x00000000        0x0 c:/program files (x86)/microchip/xc32/v2.15/bin/bin/../../lib/gcc/pic32mx/4.8.3\libgcc.a(floatunsidf.o)
 .reginfo       0x00000000       0x18 c:/program files (x86)/microchip/xc32/v2.15/bin/bin/../../lib/gcc/pic32mx/4.8.3\libgcc.a(floatunsidf.o)
 .text          0x00000000        0x0 c:/program files (x86)/microchip/xc32/v2.15/bin/bin/../../lib/gcc/pic32mx/4.8.3/../../../../pic32mx/lib\libpic32.a(sbrk.o)
 .data          0x00000000        0x0 c:/program files (x86)/microchip/xc32/v2.15/bin/bin/../../lib/gcc/pic32mx/4.8.3/../../../../pic32mx/lib\libpic32.a(sbrk.o)
 .bss           0x00000000       0x24 c:/program files (x86)/microchip/xc32/v2.15/bin/bin/../../lib/gcc/pic32mx/4.8.3/../../../../pic32mx/lib\libpic32.a(sbrk.o)
 .reginfo       0x00000000       0x18 c:/program files (x86)/microchip/xc32/v2.15/bin/bin/../../lib/gcc/pic32mx/4.8.3/../../../../pic32mx/lib\libpic32.a(sbrk.o)
 .text.getpagesize
                0x00000000        0x8 c:/program files (x86)/microchip/xc32/v2.15/bin/bin/../../lib/gcc/pic32mx/4.8.3/../../../../pic32mx/lib\libpic32.a(sbrk.o)
 .text._stub_sbd_memlayout
                0x00000000       0x2c c:/program files (x86)/microchip/xc32/v2.15/bin/bin/../../lib/gcc/pic32mx/4.8.3/../../../../pic32mx/lib\libpic32.a(sbrk.o)
 .text._sbrk_init
                0x00000000      0x194 c:/program files (x86)/microchip/xc32/v2.15/bin/bin/../../lib/gcc/pic32mx/4.8.3/../../../../pic32mx/lib\libpic32.a(sbrk.o)
 .text._sbrk    0x00000000       0xc8 c:/program files (x86)/microchip/xc32/v2.15/bin/bin/../../lib/gcc/pic32mx/4.8.3/../../../../pic32mx/lib\libpic32.a(sbrk.o)
 .text.sbrk     0x00000000       0x50 c:/program files (x86)/microchip/xc32/v2.15/bin/bin/../../lib/gcc/pic32mx/4.8.3/../../../../pic32mx/lib\libpic32.a(sbrk.o)
 .text          0x00000000        0x0 c:/program files (x86)/microchip/xc32/v2.15/bin/bin/../../lib/gcc/pic32mx/4.8.3/../../../../pic32mx/lib\libpic32.a(read.o)
 .data          0x00000000        0x0 c:/program files (x86)/microchip/xc32/v2.15/bin/bin/../../lib/gcc/pic32mx/4.8.3/../../../../pic32mx/lib\libpic32.a(read.o)
 .bss           0x00000000        0x0 c:/program files (x86)/microchip/xc32/v2.15/bin/bin/../../lib/gcc/pic32mx/4.8.3/../../../../pic32mx/lib\libpic32.a(read.o)
 .reginfo       0x00000000       0x18 c:/program files (x86)/microchip/xc32/v2.15/bin/bin/../../lib/gcc/pic32mx/4.8.3/../../../../pic32mx/lib\libpic32.a(read.o)
 .text          0x00000000        0x0 c:/program files (x86)/microchip/xc32/v2.15/bin/bin/../../lib/gcc/pic32mx/4.8.3/../../../../pic32mx/lib\libpic32.a(write.o)
 .data          0x00000000        0x0 c:/program files (x86)/microchip/xc32/v2.15/bin/bin/../../lib/gcc/pic32mx/4.8.3/../../../../pic32mx/lib\libpic32.a(write.o)
 .bss           0x00000000        0x0 c:/program files (x86)/microchip/xc32/v2.15/bin/bin/../../lib/gcc/pic32mx/4.8.3/../../../../pic32mx/lib\libpic32.a(write.o)
 .reginfo       0x00000000       0x18 c:/program files (x86)/microchip/xc32/v2.15/bin/bin/../../lib/gcc/pic32mx/4.8.3/../../../../pic32mx/lib\libpic32.a(write.o)
 .text          0x00000000        0x0 c:/program files (x86)/microchip/xc32/v2.15/bin/bin/../../lib/gcc/pic32mx/4.8.3/../../../../pic32mx/lib\libpic32.a(xc32_uart.o)
 .data          0x00000000        0x0 c:/program files (x86)/microchip/xc32/v2.15/bin/bin/../../lib/gcc/pic32mx/4.8.3/../../../../pic32mx/lib\libpic32.a(xc32_uart.o)
 .bss           0x00000000        0x0 c:/program files (x86)/microchip/xc32/v2.15/bin/bin/../../lib/gcc/pic32mx/4.8.3/../../../../pic32mx/lib\libpic32.a(xc32_uart.o)
 .reginfo       0x00000000       0x18 c:/program files (x86)/microchip/xc32/v2.15/bin/bin/../../lib/gcc/pic32mx/4.8.3/../../../../pic32mx/lib\libpic32.a(xc32_uart.o)
 .text          0x00000000        0x0 c:/program files (x86)/microchip/xc32/v2.15/bin/bin/../../lib/gcc/pic32mx/4.8.3/../../../../pic32mx/lib\libpic32.a(errno.o)
 .data          0x00000000        0x0 c:/program files (x86)/microchip/xc32/v2.15/bin/bin/../../lib/gcc/pic32mx/4.8.3/../../../../pic32mx/lib\libpic32.a(errno.o)
 .bss           0x00000000        0x0 c:/program files (x86)/microchip/xc32/v2.15/bin/bin/../../lib/gcc/pic32mx/4.8.3/../../../../pic32mx/lib\libpic32.a(errno.o)
 .reginfo       0x00000000       0x18 c:/program files (x86)/microchip/xc32/v2.15/bin/bin/../../lib/gcc/pic32mx/4.8.3/../../../../pic32mx/lib\libpic32.a(errno.o)
 .text          0x00000000        0x0 c:/program files (x86)/microchip/xc32/v2.15/bin/bin/../../lib/gcc/pic32mx/4.8.3/../../../../pic32mx/lib\libpic32.a(_mon_putc.o)
 .data          0x00000000        0x0 c:/program files (x86)/microchip/xc32/v2.15/bin/bin/../../lib/gcc/pic32mx/4.8.3/../../../../pic32mx/lib\libpic32.a(_mon_putc.o)
 .bss           0x00000000        0x0 c:/program files (x86)/microchip/xc32/v2.15/bin/bin/../../lib/gcc/pic32mx/4.8.3/../../../../pic32mx/lib\libpic32.a(_mon_putc.o)
 .reginfo       0x00000000       0x18 c:/program files (x86)/microchip/xc32/v2.15/bin/bin/../../lib/gcc/pic32mx/4.8.3/../../../../pic32mx/lib\libpic32.a(_mon_putc.o)

Memory Configuration

Name             Origin             Length             Attributes
kseg0_data_mem   0x80000000         0x00000200
kseg1_data_mem   0xa0000000         0x00020000         w !x
kseg0_boot_mem   0x9fc00490         0x00000970
kseg1_boot_mem   0xbfc00000         0x00000490
kseg0_program_mem 0x9d000000         0x00080000         xr
exception_mem    0x9fc01000         0x00001000
debug_exec_mem   0xbfc02000         0x00000ff0
config3          0xbfc02ff0         0x00000004
config2          0xbfc02ff4         0x00000004
config1          0xbfc02ff8         0x00000004
config0          0xbfc02ffc         0x00000004
sfrs             0xbf800000         0x00100000
configsfrs       0xbfc02ff0         0x00000010
*default*        0x00000000         0xffffffff

Linker script and memory map


reserve_data_0_kseg0
                0x80000000      0x200
                0x80000000        0x2 SHORT 0x0
                0x000001fd                . = 0x1fd
 *fill*         0x80000002      0x1fb 
                0x80000200                . = ALIGN (0x4)
 *fill*         0x800001fd        0x3 

reserve_data_0_kseg1
                0xa0000000      0x200
                0xa0000000        0x2 SHORT 0x0
                0x000001fd                . = 0x1fd
 *fill*         0xa0000002      0x1fb 
                0xa0000200                . = ALIGN (0x4)
 *fill*         0xa00001fd        0x3 

reserve_boot_0x1fc02000_kseg0
                0x9fc02000      0xff0
                0x9fc02000        0x2 SHORT 0x0
                0x00000500                . = 0x500
 *fill*         0x9fc02002      0x4fe 
                0x9fc02500                . = ALIGN (0x4)
                0x9fc02500        0x2 SHORT 0x0
                0x00000ff0                . = 0xff0
 *fill*         0x9fc02502      0xaee 
                0x9fc02ff0                . = ALIGN (0x4)

reserve_boot_0x1fc02000_kseg1
                0xbfc02000      0xff0
                0xbfc02000        0x2 SHORT 0x0
                0x00000500                . = 0x500
 *fill*         0xbfc02002      0x4fe 
                0xbfc02500                . = ALIGN (0x4)
                0xbfc02500        0x2 SHORT 0x0
                0x00000ff0                . = 0xff0
 *fill*         0xbfc02502      0xaee 
                0xbfc02ff0                . = ALIGN (0x4)
LOAD c:/program files (x86)/microchip/xc32/v2.15/bin/bin/../../lib/gcc/pic32mx/4.8.3/../../../../pic32mx/lib\software-debug-break.o
LOAD build/default/debug/_ext/1361460060/drv_adc_static.o
LOAD build/default/debug/_ext/1407244131/drv_tmr_static.o
LOAD build/default/debug/_ext/1407244131/drv_tmr_mapping.o
LOAD build/default/debug/_ext/327000265/drv_usart_mapping.o
LOAD build/default/debug/_ext/327000265/drv_usart_static.o
LOAD build/default/debug/_ext/327000265/drv_usart_static_byte_model.o
LOAD build/default/debug/_ext/639803181/sys_clk_pic32mx.o
LOAD build/default/debug/_ext/340578644/sys_devcon.o
LOAD build/default/debug/_ext/340578644/sys_devcon_pic32mx.o
LOAD build/default/debug/_ext/822048611/sys_ports_static.o
LOAD build/default/debug/_ext/1688732426/system_init.o
LOAD build/default/debug/_ext/1688732426/system_interrupt.o
LOAD build/default/debug/_ext/1688732426/system_exceptions.o
LOAD build/default/debug/_ext/1688732426/system_tasks.o
LOAD build/default/debug/_ext/1688732426/system_interrupt_a.o
LOAD build/default/debug/_ext/1688732426/rtos_hooks.o
LOAD build/default/debug/_ext/1360937237/app.o
LOAD build/default/debug/_ext/1360937237/main.o
LOAD build/default/debug/_ext/45544379/debug.o
LOAD build/default/debug/_ext/1360937237/Distance.o
LOAD build/default/debug/_ext/1360937237/IR.o
LOAD build/default/debug/_ext/1360937237/TxThread.o
LOAD build/default/debug/_ext/45544379/JSON.o
LOAD build/default/debug/_ext/45544379/cJSON.o
LOAD build/default/debug/_ext/45544379/md5.o
LOAD build/default/debug/_ext/45544379/sensor_queue.o
LOAD build/default/debug/_ext/24337685/osal_freertos.o
LOAD build/default/debug/_ext/122796885/sys_int_pic32.o
LOAD build/default/debug/_ext/1856876499/heap_1.o
LOAD build/default/debug/_ext/12131622/port.o
LOAD build/default/debug/_ext/12131622/port_asm.o
LOAD build/default/debug/_ext/1128951024/croutine.o
LOAD build/default/debug/_ext/1128951024/list.o
LOAD build/default/debug/_ext/1128951024/queue.o
LOAD build/default/debug/_ext/1128951024/tasks.o
LOAD build/default/debug/_ext/1128951024/timers.o
LOAD build/default/debug/_ext/1128951024/event_groups.o
LOAD build/default/debug/_ext/1128951024/stream_buffer.o
LOAD ..\..\..\..\bin\framework\peripheral\PIC32MX795F512L_peripherals.a
                0x00000001                __MPLAB_BUILD = 0x1
                0x00000001                __MPLAB_DEBUG = 0x1
                0x00000001                __DEBUG = 0x1
                0x00000001                __MPLAB_DEBUGGER_PK3 = 0x1
                0x00000000                _min_heap_size = 0x0
LOAD C:\Users\MOQIZH~1\AppData\Local\Temp\ccYY4veD.o
LOAD C:\Users\MOQIZH~1\AppData\Local\Temp\ccgoGl1o.o
LOAD C:\Users\MOQIZH~1\AppData\Local\Temp\ccnf1BQ8.o
LOAD c:/program files (x86)/microchip/xc32/v2.15/bin/bin/../../lib/gcc/pic32mx/4.8.3/../../../../pic32mx/lib/./proc/32MX795F512L\default_isr_vectors.o
LOAD c:/program files (x86)/microchip/xc32/v2.15/bin/bin/../../lib/gcc/pic32mx/4.8.3/../../../../pic32mx/lib\pic32_software_reset.o
                0x00000400                PROVIDE (_min_stack_size, 0x400)
START GROUP
LOAD c:/program files (x86)/microchip/xc32/v2.15/bin/bin/../../lib/gcc/pic32mx/4.8.3/../../../../pic32mx/lib/./proc/32MX795F512L\processor.o
END GROUP
START GROUP
LOAD libmchp_peripheral.a
END GROUP
START GROUP
LOAD libmchp_peripheral_32MX795F512L.a
END GROUP
                0x00000001                PROVIDE (_vector_spacing, 0x1)
                0x9fc01000                PROVIDE (_ebase_address, 0x9fc01000)
                0xbfc00000                _RESET_ADDR = 0xbfc00000
                0xbfc00380                _BEV_EXCPT_ADDR = 0xbfc00380
                0xbfc00480                _DBG_EXCPT_ADDR = 0xbfc00480
                0xbfc02000                _DBG_CODE_ADDR = 0xbfc02000
                0x00000ff0                _DBG_CODE_SIZE = 0xff0
                0x9fc01180                _GEN_EXCPT_ADDR = (_ebase_address + 0x180)

.config_BFC02FF0
                0xbfc02ff0        0x4
 *(.config_BFC02FF0)
 .config_BFC02FF0
                0xbfc02ff0        0x4 build/default/debug/_ext/1688732426/system_init.o

.config_BFC02FF4
                0xbfc02ff4        0x4
 *(.config_BFC02FF4)
 .config_BFC02FF4
                0xbfc02ff4        0x4 build/default/debug/_ext/1688732426/system_init.o

.config_BFC02FF8
                0xbfc02ff8        0x4
 *(.config_BFC02FF8)
 .config_BFC02FF8
                0xbfc02ff8        0x4 build/default/debug/_ext/1688732426/system_init.o

.config_BFC02FFC
                0xbfc02ffc        0x4
 *(.config_BFC02FFC)
 .config_BFC02FFC
                0xbfc02ffc        0x4 build/default/debug/_ext/1688732426/system_init.o
                0xbfc02000                PROVIDE (_DBG_CODE_ADDR, 0xbfc02000)
                0x00000ff0                PROVIDE (_DBG_CODE_SIZE, 0xff0)

.reset          0xbfc00000      0x1a8
 *(.reset)
 .reset         0xbfc00000        0x8 C:\Users\MOQIZH~1\AppData\Local\Temp\ccYY4veD.o
                0xbfc00000                _reset
 *(.reset.startup)
 .reset.startup
                0xbfc00008      0x1a0 C:\Users\MOQIZH~1\AppData\Local\Temp\ccYY4veD.o
                0xbfc00008                _startup

.bev_excpt      0xbfc00380       0x10
 *(.bev_handler)
 .bev_handler   0xbfc00380       0x10 C:\Users\MOQIZH~1\AppData\Local\Temp\ccYY4veD.o

.dbg_excpt      0xbfc00480        0x0
                0xbfc00480                . = (. + DEFINED (_DEBUGGER)?0x8:0x0)

.dbg_code       0xbfc02000        0x0
                0xbfc02000                . = (. + DEFINED (_DEBUGGER)?_DBG_CODE_SIZE:0x0)

.app_excpt      0x9fc01180       0x10
 *(.gen_handler)
 .gen_handler   0x9fc01180       0x10 C:\Users\MOQIZH~1\AppData\Local\Temp\ccYY4veD.o

.vector_0       0x9fc01200        0x8
 *(.vector_0)
 .vector_0      0x9fc01200        0x8 c:/program files (x86)/microchip/xc32/v2.15/bin/bin/../../lib/gcc/pic32mx/4.8.3/../../../../pic32mx/lib\libpic32.a(vector0.o)
                0x9fc01200                __vector_dispatch_0
                0x00000001                ASSERT (((_vector_spacing == 0x0) || (SIZEOF (.vector_0) <= (_vector_spacing << 0x5))), function at exception vector 0 too large)

.vector_1       0x9fc01220        0x8
 *(.vector_1)
 .vector_1      0x9fc01220        0x8 build/default/debug/_ext/12131622/port.o
                0x9fc01220                __vector_dispatch_1
                0x00000001                ASSERT (((_vector_spacing == 0x0) || (SIZEOF (.vector_1) <= (_vector_spacing << 0x5))), function at exception vector 1 too large)

.vector_2       0x9fc01240        0x8
 *(.vector_2)
 .vector_2      0x9fc01240        0x8 c:/program files (x86)/microchip/xc32/v2.15/bin/bin/../../lib/gcc/pic32mx/4.8.3/../../../../pic32mx/lib\libpic32.a(vector2.o)
                0x9fc01240                __vector_dispatch_2
                0x00000001                ASSERT (((_vector_spacing == 0x0) || (SIZEOF (.vector_2) <= (_vector_spacing << 0x5))), function at exception vector 2 too large)

.vector_3       0x9fc01260        0x8
 *(.vector_3)
 .vector_3      0x9fc01260        0x8 c:/program files (x86)/microchip/xc32/v2.15/bin/bin/../../lib/gcc/pic32mx/4.8.3/../../../../pic32mx/lib\libpic32.a(vector3.o)
                0x9fc01260                __vector_dispatch_3
                0x00000001                ASSERT (((_vector_spacing == 0x0) || (SIZEOF (.vector_3) <= (_vector_spacing << 0x5))), function at exception vector 3 too large)

.vector_4       0x9fc01280        0x8
 *(.vector_4)
 .vector_4      0x9fc01280        0x8 build/default/debug/_ext/12131622/port.o
                0x9fc01280                __vector_dispatch_4
                0x00000001                ASSERT (((_vector_spacing == 0x0) || (SIZEOF (.vector_4) <= (_vector_spacing << 0x5))), function at exception vector 4 too large)

.vector_5       0x9fc012a0        0x8
 *(.vector_5)
 .vector_5      0x9fc012a0        0x8 c:/program files (x86)/microchip/xc32/v2.15/bin/bin/../../lib/gcc/pic32mx/4.8.3/../../../../pic32mx/lib\libpic32.a(vector5.o)
                0x9fc012a0                __vector_dispatch_5
                0x00000001                ASSERT (((_vector_spacing == 0x0) || (SIZEOF (.vector_5) <= (_vector_spacing << 0x5))), function at exception vector 5 too large)

.vector_6       0x9fc012c0        0x8
 *(.vector_6)
 .vector_6      0x9fc012c0        0x8 c:/program files (x86)/microchip/xc32/v2.15/bin/bin/../../lib/gcc/pic32mx/4.8.3/../../../../pic32mx/lib\libpic32.a(vector6.o)
                0x9fc012c0                __vector_dispatch_6
                0x00000001                ASSERT (((_vector_spacing == 0x0) || (SIZEOF (.vector_6) <= (_vector_spacing << 0x5))), function at exception vector 6 too large)

.vector_7       0x9fc012e0        0x8
 *(.vector_7)
 .vector_7      0x9fc012e0        0x8 c:/program files (x86)/microchip/xc32/v2.15/bin/bin/../../lib/gcc/pic32mx/4.8.3/../../../../pic32mx/lib\libpic32.a(vector7.o)
                0x9fc012e0                __vector_dispatch_7
                0x00000001                ASSERT (((_vector_spacing == 0x0) || (SIZEOF (.vector_7) <= (_vector_spacing << 0x5))), function at exception vector 7 too large)

.vector_8       0x9fc01300       0x10
 *(.vector_8)
 .vector_8      0x9fc01300       0x10 build/default/debug/_ext/1688732426/system_interrupt_a.o
                0x9fc01300                __vector_dispatch_8
                0x00000001                ASSERT (((_vector_spacing == 0x0) || (SIZEOF (.vector_8) <= (_vector_spacing << 0x5))), function at exception vector 8 too large)

.vector_9       0x9fc01320        0x8
 *(.vector_9)
 .vector_9      0x9fc01320        0x8 c:/program files (x86)/microchip/xc32/v2.15/bin/bin/../../lib/gcc/pic32mx/4.8.3/../../../../pic32mx/lib\libpic32.a(vector9.o)
                0x9fc01320                __vector_dispatch_9
                0x00000001                ASSERT (((_vector_spacing == 0x0) || (SIZEOF (.vector_9) <= (_vector_spacing << 0x5))), function at exception vector 9 too large)

.vector_10      0x9fc01340        0x8
 *(.vector_10)
 .vector_10     0x9fc01340        0x8 c:/program files (x86)/microchip/xc32/v2.15/bin/bin/../../lib/gcc/pic32mx/4.8.3/../../../../pic32mx/lib\libpic32.a(vector10.o)
                0x9fc01340                __vector_dispatch_10
                0x00000001                ASSERT (((_vector_spacing == 0x0) || (SIZEOF (.vector_10) <= (_vector_spacing << 0x5))), function at exception vector 10 too large)

.vector_11      0x9fc01360        0x8
 *(.vector_11)
 .vector_11     0x9fc01360        0x8 c:/program files (x86)/microchip/xc32/v2.15/bin/bin/../../lib/gcc/pic32mx/4.8.3/../../../../pic32mx/lib\libpic32.a(vector11.o)
                0x9fc01360                __vector_dispatch_11
                0x00000001                ASSERT (((_vector_spacing == 0x0) || (SIZEOF (.vector_11) <= (_vector_spacing << 0x5))), function at exception vector 11 too large)

.vector_12      0x9fc01380       0x10
 *(.vector_12)
 .vector_12     0x9fc01380       0x10 build/default/debug/_ext/1688732426/system_interrupt_a.o
                0x9fc01380                __vector_dispatch_12
                0x00000001                ASSERT (((_vector_spacing == 0x0) || (SIZEOF (.vector_12) <= (_vector_spacing << 0x5))), function at exception vector 12 too large)

.vector_13      0x9fc013a0        0x8
 *(.vector_13)
 .vector_13     0x9fc013a0        0x8 c:/program files (x86)/microchip/xc32/v2.15/bin/bin/../../lib/gcc/pic32mx/4.8.3/../../../../pic32mx/lib\libpic32.a(vector13.o)
                0x9fc013a0                __vector_dispatch_13
                0x00000001                ASSERT (((_vector_spacing == 0x0) || (SIZEOF (.vector_13) <= (_vector_spacing << 0x5))), function at exception vector 13 too large)

.vector_14      0x9fc013c0        0x8
 *(.vector_14)
 .vector_14     0x9fc013c0        0x8 c:/program files (x86)/microchip/xc32/v2.15/bin/bin/../../lib/gcc/pic32mx/4.8.3/../../../../pic32mx/lib\libpic32.a(vector14.o)
                0x9fc013c0                __vector_dispatch_14
                0x00000001                ASSERT (((_vector_spacing == 0x0) || (SIZEOF (.vector_14) <= (_vector_spacing << 0x5))), function at exception vector 14 too large)

.vector_15      0x9fc013e0        0x8
 *(.vector_15)
 .vector_15     0x9fc013e0        0x8 c:/program files (x86)/microchip/xc32/v2.15/bin/bin/../../lib/gcc/pic32mx/4.8.3/../../../../pic32mx/lib\libpic32.a(vector15.o)
                0x9fc013e0                __vector_dispatch_15
                0x00000001                ASSERT (((_vector_spacing == 0x0) || (SIZEOF (.vector_15) <= (_vector_spacing << 0x5))), function at exception vector 15 too large)

.vector_16      0x9fc01400        0x8
 *(.vector_16)
 .vector_16     0x9fc01400        0x8 c:/program files (x86)/microchip/xc32/v2.15/bin/bin/../../lib/gcc/pic32mx/4.8.3/../../../../pic32mx/lib\libpic32.a(vector16.o)
                0x9fc01400                __vector_dispatch_16
                0x00000001                ASSERT (((_vector_spacing == 0x0) || (SIZEOF (.vector_16) <= (_vector_spacing << 0x5))), function at exception vector 16 too large)

.vector_17      0x9fc01420        0x8
 *(.vector_17)
 .vector_17     0x9fc01420        0x8 c:/program files (x86)/microchip/xc32/v2.15/bin/bin/../../lib/gcc/pic32mx/4.8.3/../../../../pic32mx/lib\libpic32.a(vector17.o)
                0x9fc01420                __vector_dispatch_17
                0x00000001                ASSERT (((_vector_spacing == 0x0) || (SIZEOF (.vector_17) <= (_vector_spacing << 0x5))), function at exception vector 17 too large)

.vector_18      0x9fc01440        0x8
 *(.vector_18)
 .vector_18     0x9fc01440        0x8 c:/program files (x86)/microchip/xc32/v2.15/bin/bin/../../lib/gcc/pic32mx/4.8.3/../../../../pic32mx/lib\libpic32.a(vector18.o)
                0x9fc01440                __vector_dispatch_18
                0x00000001                ASSERT (((_vector_spacing == 0x0) || (SIZEOF (.vector_18) <= (_vector_spacing << 0x5))), function at exception vector 18 too large)

.vector_19      0x9fc01460        0x8
 *(.vector_19)
 .vector_19     0x9fc01460        0x8 c:/program files (x86)/microchip/xc32/v2.15/bin/bin/../../lib/gcc/pic32mx/4.8.3/../../../../pic32mx/lib\libpic32.a(vector19.o)
                0x9fc01460                __vector_dispatch_19
                0x00000001                ASSERT (((_vector_spacing == 0x0) || (SIZEOF (.vector_19) <= (_vector_spacing << 0x5))), function at exception vector 19 too large)

.vector_20      0x9fc01480        0x8
 *(.vector_20)
 .vector_20     0x9fc01480        0x8 c:/program files (x86)/microchip/xc32/v2.15/bin/bin/../../lib/gcc/pic32mx/4.8.3/../../../../pic32mx/lib\libpic32.a(vector20.o)
                0x9fc01480                __vector_dispatch_20
                0x00000001                ASSERT (((_vector_spacing == 0x0) || (SIZEOF (.vector_20) <= (_vector_spacing << 0x5))), function at exception vector 20 too large)

.vector_21      0x9fc014a0        0x8
 *(.vector_21)
 .vector_21     0x9fc014a0        0x8 c:/program files (x86)/microchip/xc32/v2.15/bin/bin/../../lib/gcc/pic32mx/4.8.3/../../../../pic32mx/lib\libpic32.a(vector21.o)
                0x9fc014a0                __vector_dispatch_21
                0x00000001                ASSERT (((_vector_spacing == 0x0) || (SIZEOF (.vector_21) <= (_vector_spacing << 0x5))), function at exception vector 21 too large)

.vector_22      0x9fc014c0        0x8
 *(.vector_22)
 .vector_22     0x9fc014c0        0x8 c:/program files (x86)/microchip/xc32/v2.15/bin/bin/../../lib/gcc/pic32mx/4.8.3/../../../../pic32mx/lib\libpic32.a(vector22.o)
                0x9fc014c0                __vector_dispatch_22
                0x00000001                ASSERT (((_vector_spacing == 0x0) || (SIZEOF (.vector_22) <= (_vector_spacing << 0x5))), function at exception vector 22 too large)

.vector_23      0x9fc014e0        0x8
 *(.vector_23)
 .vector_23     0x9fc014e0        0x8 c:/program files (x86)/microchip/xc32/v2.15/bin/bin/../../lib/gcc/pic32mx/4.8.3/../../../../pic32mx/lib\libpic32.a(vector23.o)
                0x9fc014e0                __vector_dispatch_23
                0x00000001                ASSERT (((_vector_spacing == 0x0) || (SIZEOF (.vector_23) <= (_vector_spacing << 0x5))), function at exception vector 23 too large)

.vector_24      0x9fc01500       0x10
 *(.vector_24)
 .vector_24     0x9fc01500       0x10 build/default/debug/_ext/1688732426/system_interrupt_a.o
                0x9fc01500                __vector_dispatch_24
                0x00000001                ASSERT (((_vector_spacing == 0x0) || (SIZEOF (.vector_24) <= (_vector_spacing << 0x5))), function at exception vector 24 too large)

.vector_25      0x9fc01520        0x8
 *(.vector_25)
 .vector_25     0x9fc01520        0x8 c:/program files (x86)/microchip/xc32/v2.15/bin/bin/../../lib/gcc/pic32mx/4.8.3/../../../../pic32mx/lib\libpic32.a(vector25.o)
                0x9fc01520                __vector_dispatch_25
                0x00000001                ASSERT (((_vector_spacing == 0x0) || (SIZEOF (.vector_25) <= (_vector_spacing << 0x5))), function at exception vector 25 too large)

.vector_26      0x9fc01540        0x8
 *(.vector_26)
 .vector_26     0x9fc01540        0x8 c:/program files (x86)/microchip/xc32/v2.15/bin/bin/../../lib/gcc/pic32mx/4.8.3/../../../../pic32mx/lib\libpic32.a(vector26.o)
                0x9fc01540                __vector_dispatch_26
                0x00000001                ASSERT (((_vector_spacing == 0x0) || (SIZEOF (.vector_26) <= (_vector_spacing << 0x5))), function at exception vector 26 too large)

.vector_27      0x9fc01560       0x10
 *(.vector_27)
 .vector_27     0x9fc01560       0x10 build/default/debug/_ext/1688732426/system_interrupt_a.o
                0x9fc01560                __vector_dispatch_27
                0x00000001                ASSERT (((_vector_spacing == 0x0) || (SIZEOF (.vector_27) <= (_vector_spacing << 0x5))), function at exception vector 27 too large)

.vector_28      0x9fc01580        0x8
 *(.vector_28)
 .vector_28     0x9fc01580        0x8 c:/program files (x86)/microchip/xc32/v2.15/bin/bin/../../lib/gcc/pic32mx/4.8.3/../../../../pic32mx/lib\libpic32.a(vector28.o)
                0x9fc01580                __vector_dispatch_28
                0x00000001                ASSERT (((_vector_spacing == 0x0) || (SIZEOF (.vector_28) <= (_vector_spacing << 0x5))), function at exception vector 28 too large)

.vector_29      0x9fc015a0        0x8
 *(.vector_29)
 .vector_29     0x9fc015a0        0x8 c:/program files (x86)/microchip/xc32/v2.15/bin/bin/../../lib/gcc/pic32mx/4.8.3/../../../../pic32mx/lib\libpic32.a(vector29.o)
                0x9fc015a0                __vector_dispatch_29
                0x00000001                ASSERT (((_vector_spacing == 0x0) || (SIZEOF (.vector_29) <= (_vector_spacing << 0x5))), function at exception vector 29 too large)

.vector_30      0x9fc015c0        0x8
 *(.vector_30)
 .vector_30     0x9fc015c0        0x8 c:/program files (x86)/microchip/xc32/v2.15/bin/bin/../../lib/gcc/pic32mx/4.8.3/../../../../pic32mx/lib\libpic32.a(vector30.o)
                0x9fc015c0                __vector_dispatch_30
                0x00000001                ASSERT (((_vector_spacing == 0x0) || (SIZEOF (.vector_30) <= (_vector_spacing << 0x5))), function at exception vector 30 too large)

.vector_31      0x9fc015e0       0x10
 *(.vector_31)
 .vector_31     0x9fc015e0       0x10 build/default/debug/_ext/1688732426/system_interrupt_a.o
                0x9fc015e0                __vector_dispatch_31
                0x00000001                ASSERT (((_vector_spacing == 0x0) || (SIZEOF (.vector_31) <= (_vector_spacing << 0x5))), function at exception vector 31 too large)

.vector_32      0x9fc01600       0x10
 *(.vector_32)
 .vector_32     0x9fc01600       0x10 build/default/debug/_ext/1688732426/system_interrupt_a.o
                0x9fc01600                __vector_dispatch_32
                0x00000001                ASSERT (((_vector_spacing == 0x0) || (SIZEOF (.vector_32) <= (_vector_spacing << 0x5))), function at exception vector 32 too large)

.vector_33      0x9fc01620        0x8
 *(.vector_33)
 .vector_33     0x9fc01620        0x8 c:/program files (x86)/microchip/xc32/v2.15/bin/bin/../../lib/gcc/pic32mx/4.8.3/../../../../pic32mx/lib\libpic32.a(vector33.o)
                0x9fc01620                __vector_dispatch_33
                0x00000001                ASSERT (((_vector_spacing == 0x0) || (SIZEOF (.vector_33) <= (_vector_spacing << 0x5))), function at exception vector 33 too large)

.vector_34      0x9fc01640        0x8
 *(.vector_34)
 .vector_34     0x9fc01640        0x8 c:/program files (x86)/microchip/xc32/v2.15/bin/bin/../../lib/gcc/pic32mx/4.8.3/../../../../pic32mx/lib\libpic32.a(vector34.o)
                0x9fc01640                __vector_dispatch_34
                0x00000001                ASSERT (((_vector_spacing == 0x0) || (SIZEOF (.vector_34) <= (_vector_spacing << 0x5))), function at exception vector 34 too large)

.vector_35      0x9fc01660        0x8
 *(.vector_35)
 .vector_35     0x9fc01660        0x8 c:/program files (x86)/microchip/xc32/v2.15/bin/bin/../../lib/gcc/pic32mx/4.8.3/../../../../pic32mx/lib\libpic32.a(vector35.o)
                0x9fc01660                __vector_dispatch_35
                0x00000001                ASSERT (((_vector_spacing == 0x0) || (SIZEOF (.vector_35) <= (_vector_spacing << 0x5))), function at exception vector 35 too large)

.vector_36      0x9fc01680        0x8
 *(.vector_36)
 .vector_36     0x9fc01680        0x8 c:/program files (x86)/microchip/xc32/v2.15/bin/bin/../../lib/gcc/pic32mx/4.8.3/../../../../pic32mx/lib\libpic32.a(vector36.o)
                0x9fc01680                __vector_dispatch_36
                0x00000001                ASSERT (((_vector_spacing == 0x0) || (SIZEOF (.vector_36) <= (_vector_spacing << 0x5))), function at exception vector 36 too large)

.vector_37      0x9fc016a0        0x8
 *(.vector_37)
 .vector_37     0x9fc016a0        0x8 c:/program files (x86)/microchip/xc32/v2.15/bin/bin/../../lib/gcc/pic32mx/4.8.3/../../../../pic32mx/lib\libpic32.a(vector37.o)
                0x9fc016a0                __vector_dispatch_37
                0x00000001                ASSERT (((_vector_spacing == 0x0) || (SIZEOF (.vector_37) <= (_vector_spacing << 0x5))), function at exception vector 37 too large)

.vector_38      0x9fc016c0        0x8
 *(.vector_38)
 .vector_38     0x9fc016c0        0x8 c:/program files (x86)/microchip/xc32/v2.15/bin/bin/../../lib/gcc/pic32mx/4.8.3/../../../../pic32mx/lib\libpic32.a(vector38.o)
                0x9fc016c0                __vector_dispatch_38
                0x00000001                ASSERT (((_vector_spacing == 0x0) || (SIZEOF (.vector_38) <= (_vector_spacing << 0x5))), function at exception vector 38 too large)

.vector_39      0x9fc016e0        0x8
 *(.vector_39)
 .vector_39     0x9fc016e0        0x8 c:/program files (x86)/microchip/xc32/v2.15/bin/bin/../../lib/gcc/pic32mx/4.8.3/../../../../pic32mx/lib\libpic32.a(vector39.o)
                0x9fc016e0                __vector_dispatch_39
                0x00000001                ASSERT (((_vector_spacing == 0x0) || (SIZEOF (.vector_39) <= (_vector_spacing << 0x5))), function at exception vector 39 too large)

.vector_40      0x9fc01700        0x8
 *(.vector_40)
 .vector_40     0x9fc01700        0x8 c:/program files (x86)/microchip/xc32/v2.15/bin/bin/../../lib/gcc/pic32mx/4.8.3/../../../../pic32mx/lib\libpic32.a(vector40.o)
                0x9fc01700                __vector_dispatch_40
                0x00000001                ASSERT (((_vector_spacing == 0x0) || (SIZEOF (.vector_40) <= (_vector_spacing << 0x5))), function at exception vector 40 too large)

.vector_41      0x9fc01720        0x8
 *(.vector_41)
 .vector_41     0x9fc01720        0x8 c:/program files (x86)/microchip/xc32/v2.15/bin/bin/../../lib/gcc/pic32mx/4.8.3/../../../../pic32mx/lib\libpic32.a(vector41.o)
                0x9fc01720                __vector_dispatch_41
                0x00000001                ASSERT (((_vector_spacing == 0x0) || (SIZEOF (.vector_41) <= (_vector_spacing << 0x5))), function at exception vector 41 too large)

.vector_42      0x9fc01740        0x8
 *(.vector_42)
 .vector_42     0x9fc01740        0x8 c:/program files (x86)/microchip/xc32/v2.15/bin/bin/../../lib/gcc/pic32mx/4.8.3/../../../../pic32mx/lib\libpic32.a(vector42.o)
                0x9fc01740                __vector_dispatch_42
                0x00000001                ASSERT (((_vector_spacing == 0x0) || (SIZEOF (.vector_42) <= (_vector_spacing << 0x5))), function at exception vector 42 too large)

.vector_43      0x9fc01760        0x8
 *(.vector_43)
 .vector_43     0x9fc01760        0x8 c:/program files (x86)/microchip/xc32/v2.15/bin/bin/../../lib/gcc/pic32mx/4.8.3/../../../../pic32mx/lib\libpic32.a(vector43.o)
                0x9fc01760                __vector_dispatch_43
                0x00000001                ASSERT (((_vector_spacing == 0x0) || (SIZEOF (.vector_43) <= (_vector_spacing << 0x5))), function at exception vector 43 too large)

.vector_44      0x9fc01780        0x8
 *(.vector_44)
 .vector_44     0x9fc01780        0x8 c:/program files (x86)/microchip/xc32/v2.15/bin/bin/../../lib/gcc/pic32mx/4.8.3/../../../../pic32mx/lib\libpic32.a(vector44.o)
                0x9fc01780                __vector_dispatch_44
                0x00000001                ASSERT (((_vector_spacing == 0x0) || (SIZEOF (.vector_44) <= (_vector_spacing << 0x5))), function at exception vector 44 too large)

.vector_45      0x9fc017a0        0x8
 *(.vector_45)
 .vector_45     0x9fc017a0        0x8 c:/program files (x86)/microchip/xc32/v2.15/bin/bin/../../lib/gcc/pic32mx/4.8.3/../../../../pic32mx/lib\libpic32.a(vector45.o)
                0x9fc017a0                __vector_dispatch_45
                0x00000001                ASSERT (((_vector_spacing == 0x0) || (SIZEOF (.vector_45) <= (_vector_spacing << 0x5))), function at exception vector 45 too large)

.vector_46      0x9fc017c0        0x8
 *(.vector_46)
 .vector_46     0x9fc017c0        0x8 c:/program files (x86)/microchip/xc32/v2.15/bin/bin/../../lib/gcc/pic32mx/4.8.3/../../../../pic32mx/lib\libpic32.a(vector46.o)
                0x9fc017c0                __vector_dispatch_46
                0x00000001                ASSERT (((_vector_spacing == 0x0) || (SIZEOF (.vector_46) <= (_vector_spacing << 0x5))), function at exception vector 46 too large)

.vector_47      0x9fc017e0        0x8
 *(.vector_47)
 .vector_47     0x9fc017e0        0x8 c:/program files (x86)/microchip/xc32/v2.15/bin/bin/../../lib/gcc/pic32mx/4.8.3/../../../../pic32mx/lib\libpic32.a(vector47.o)
                0x9fc017e0                __vector_dispatch_47
                0x00000001                ASSERT (((_vector_spacing == 0x0) || (SIZEOF (.vector_47) <= (_vector_spacing << 0x5))), function at exception vector 47 too large)

.vector_48      0x9fc01800        0x8
 *(.vector_48)
 .vector_48     0x9fc01800        0x8 c:/program files (x86)/microchip/xc32/v2.15/bin/bin/../../lib/gcc/pic32mx/4.8.3/../../../../pic32mx/lib\libpic32.a(vector48.o)
                0x9fc01800                __vector_dispatch_48
                0x00000001                ASSERT (((_vector_spacing == 0x0) || (SIZEOF (.vector_48) <= (_vector_spacing << 0x5))), function at exception vector 48 too large)

.vector_49      0x9fc01820       0x10
 *(.vector_49)
 .vector_49     0x9fc01820       0x10 build/default/debug/_ext/1688732426/system_interrupt_a.o
                0x9fc01820                __vector_dispatch_49
                0x00000001                ASSERT (((_vector_spacing == 0x0) || (SIZEOF (.vector_49) <= (_vector_spacing << 0x5))), function at exception vector 49 too large)

.vector_50      0x9fc01840        0x8
 *(.vector_50)
 .vector_50     0x9fc01840        0x8 c:/program files (x86)/microchip/xc32/v2.15/bin/bin/../../lib/gcc/pic32mx/4.8.3/../../../../pic32mx/lib\libpic32.a(vector50.o)
                0x9fc01840                __vector_dispatch_50
                0x00000001                ASSERT (((_vector_spacing == 0x0) || (SIZEOF (.vector_50) <= (_vector_spacing << 0x5))), function at exception vector 50 too large)

.vector_51      0x9fc01860        0x8
 *(.vector_51)
 .vector_51     0x9fc01860        0x8 c:/program files (x86)/microchip/xc32/v2.15/bin/bin/../../lib/gcc/pic32mx/4.8.3/../../../../pic32mx/lib\libpic32.a(vector51.o)
                0x9fc01860                __vector_dispatch_51
                0x00000001                ASSERT (((_vector_spacing == 0x0) || (SIZEOF (.vector_51) <= (_vector_spacing << 0x5))), function at exception vector 51 too large)

.vector_52      0x9fc01880        0x0
 *(.vector_52)
                0x00000001                ASSERT (((_vector_spacing == 0x0) || (SIZEOF (.vector_52) <= (_vector_spacing << 0x5))), function at exception vector 52 too large)

.vector_53      0x9fc018a0        0x0
 *(.vector_53)
                0x00000001                ASSERT (((_vector_spacing == 0x0) || (SIZEOF (.vector_53) <= (_vector_spacing << 0x5))), function at exception vector 53 too large)

.vector_54      0x9fc018c0        0x0
 *(.vector_54)
                0x00000001                ASSERT (((_vector_spacing == 0x0) || (SIZEOF (.vector_54) <= (_vector_spacing << 0x5))), function at exception vector 54 too large)

.vector_55      0x9fc018e0        0x0
 *(.vector_55)
                0x00000001                ASSERT (((_vector_spacing == 0x0) || (SIZEOF (.vector_55) <= (_vector_spacing << 0x5))), function at exception vector 55 too large)

.vector_56      0x9fc01900        0x0
 *(.vector_56)
                0x00000001                ASSERT (((_vector_spacing == 0x0) || (SIZEOF (.vector_56) <= (_vector_spacing << 0x5))), function at exception vector 56 too large)

.vector_57      0x9fc01920        0x0
 *(.vector_57)
                0x00000001                ASSERT (((_vector_spacing == 0x0) || (SIZEOF (.vector_57) <= (_vector_spacing << 0x5))), function at exception vector 57 too large)

.vector_58      0x9fc01940        0x0
 *(.vector_58)
                0x00000001                ASSERT (((_vector_spacing == 0x0) || (SIZEOF (.vector_58) <= (_vector_spacing << 0x5))), function at exception vector 58 too large)

.vector_59      0x9fc01960        0x0
 *(.vector_59)
                0x00000001                ASSERT (((_vector_spacing == 0x0) || (SIZEOF (.vector_59) <= (_vector_spacing << 0x5))), function at exception vector 59 too large)

.vector_60      0x9fc01980        0x0
 *(.vector_60)
                0x00000001                ASSERT (((_vector_spacing == 0x0) || (SIZEOF (.vector_60) <= (_vector_spacing << 0x5))), function at exception vector 60 too large)

.vector_61      0x9fc019a0        0x0
 *(.vector_61)
                0x00000001                ASSERT (((_vector_spacing == 0x0) || (SIZEOF (.vector_61) <= (_vector_spacing << 0x5))), function at exception vector 61 too large)

.vector_62      0x9fc019c0        0x0
 *(.vector_62)
                0x00000001                ASSERT (((_vector_spacing == 0x0) || (SIZEOF (.vector_62) <= (_vector_spacing << 0x5))), function at exception vector 62 too large)

.vector_63      0x9fc019e0        0x0
 *(.vector_63)
                0x00000001                ASSERT (((_vector_spacing == 0x0) || (SIZEOF (.vector_63) <= (_vector_spacing << 0x5))), function at exception vector 63 too large)

.startup
 *(.startup)

.text           0x9d000000        0x0
 *(.stub .gnu.linkonce.t.*)
 *(.text.*personality*)
 *(.mips16.fn.*)
 *(.mips16.call.*)
 *(.gnu.warning)
                0x9d000000                . = ALIGN (0x4)

.init           0x9d000000        0x0
 *crti.o(.init)
 *crtbegin.o(.init)
 *(EXCLUDE_FILE(*crtn.o *crtend?.o *crtend.o) .init)
 *crtend.o(.init)
 *crtn.o(.init)
                0x9d000000                . = ALIGN (0x4)

.fini           0x9d000000        0x0
 *(.fini)
                0x9d000000                . = ALIGN (0x4)

.preinit_array  0x9d000000        0x0
                0x9d000000                PROVIDE (__preinit_array_start, .)
 *(.preinit_array)
                0x9d000000                PROVIDE (__preinit_array_end, .)
                0x9d000000                . = ALIGN (0x4)

.init_array     0x9d000000        0x0
                0x9d000000                PROVIDE (__init_array_start, .)
 *(SORT(.init_array.*))
 *(.init_array)
                0x9d000000                PROVIDE (__init_array_end, .)
                0x9d000000                . = ALIGN (0x4)

.fini_array     0x9d000000        0x0
                0x9d000000                PROVIDE (__fini_array_start, .)
 *(SORT(.fini_array.*))
 *(.fini_array)
                0x9d000000                PROVIDE (__fini_array_end, .)
                0x9d000000                . = ALIGN (0x4)

.ctors          0x9d000000        0x0
 *crtbegin.o(.ctors)
 *crtbegin?.o(.ctors)
 *(EXCLUDE_FILE(*crtend?.o *crtend.o) .ctors)
 *(SORT(.ctors.*))
 *(.ctors)
                0x9d000000                . = ALIGN (0x4)

.dtors          0x9d000000        0x0
 *crtbegin.o(.dtors)
 *crtbegin?.o(.dtors)
 *(EXCLUDE_FILE(*crtend?.o *crtend.o) .dtors)
 *(SORT(.dtors.*))
 *(.dtors)
                0x9d000000                . = ALIGN (0x4)

.rodata         0x9d000000        0x0
 *(.gnu.linkonce.r.*)
 *(.rodata1)
                0x9d000000                . = ALIGN (0x4)

.sdata2         0x9fc00490        0x0
 *(.sdata2 .sdata2.* .gnu.linkonce.s2.*)
                0x9fc00490                . = ALIGN (0x4)

.sbss2          0x9fc00490        0x0
 *(.sbss2 .sbss2.* .gnu.linkonce.sb2.*)
                0x9fc00490                . = ALIGN (0x4)

.eh_frame_hdr
 *(.eh_frame_hdr)
                0x9fc00490                . = ALIGN (0x4)

.eh_frame
 *(.eh_frame)
                0x9fc00490                . = ALIGN (0x4)

.gcc_except_table
 *(.gcc_except_table .gcc_except_table.*)
                0x9fc00490                . = ALIGN (0x4)

.dbg_data       0xa0000200        0x0
                0xa0000200                . = (. + DEFINED (_DEBUGGER)?0x200:0x0)

.jcr            0xa0000200        0x0
 *(.jcr)
                0xa0000200                . = ALIGN (0x4)

.eh_frame
 *(.eh_frame)
                0xa0000200                . = ALIGN (0x4)

.gcc_except_table
 *(.gcc_except_table .gcc_except_table.*)
                0xa0000200                . = ALIGN (0x4)

.persist        0xa0000200        0x0
                0xa0000200                _persist_begin = .
 *(.persist .persist.*)
 *(.pbss .pbss.*)
                0xa0000200                . = ALIGN (0x4)
                0xa0000200                _persist_end = .

.data           0xa0000200        0x0
 *(.gnu.linkonce.d.*)
 *(.data1)
                0xa0000200                . = ALIGN (0x4)
                0xa0000200                . = .
                0xa00081f0                _gp = (ALIGN (0x10) + 0x7ff0)

.got            0xa0000200        0x0
 *(.got.plt)
 *(.got)
                0xa0000200                . = ALIGN (0x4)

.sdata          0xa0000200        0x8
                0xa0000200                _sdata_begin = .
 *(.sdata .sdata.* .gnu.linkonce.s.*)
 .sdata         0xa0000200        0x4 build/default/debug/_ext/12131622/port.o
                0xa0000200                uxInterruptNesting
 .sdata         0xa0000204        0x4 c:/program files (x86)/microchip/xc32/v2.15/bin/bin/../../lib/gcc/pic32mx/4.8.3/../../../../pic32mx/lib\libpic32.a(xc32_uart.o)
                0xa0000204                __XC_UART
                0xa0000208                . = ALIGN (0x4)
                0xa0000208                _sdata_end = .

.lit8
 *(.lit8)

.lit4
 *(.lit4)
                0xa0000208                . = ALIGN (0x4)
                0xa0000208                _data_end = .
                0xa0000208                _bss_begin = .

.sbss           0xa0000208      0x100
                0xa0000208                _sbss_begin = .
 *(.dynsbss)
 *(.sbss .sbss.* .gnu.linkonce.sb.*)
 .sbss          0xa0000208        0x2 build/default/debug/_ext/1407244131/drv_tmr_static.o
 *fill*         0xa000020a        0x2 
 .sbss          0xa000020c       0x18 build/default/debug/_ext/1688732426/system_interrupt.o
 .sbss          0xa0000224        0xc build/default/debug/_ext/1688732426/system_exceptions.o
 .sbss          0xa0000230        0x2 build/default/debug/_ext/1360937237/app.o
 .sbss          0xa0000232        0x1 build/default/debug/_ext/1360937237/IR.o
 *fill*         0xa0000233        0x1 
 .sbss          0xa0000234       0x10 build/default/debug/_ext/1360937237/TxThread.o
 .sbss          0xa0000244        0x8 build/default/debug/_ext/45544379/cJSON.o
 .sbss          0xa000024c       0x18 build/default/debug/_ext/1856876499/heap_1.o
 .sbss          0xa0000264        0x4 build/default/debug/_ext/12131622/port.o
                0xa0000264                uxSavedTaskStackPointer
 .sbss          0xa0000268       0x34 build/default/debug/_ext/1128951024/tasks.o
                0xa0000268                uxSchedulerSuspended
                0xa000026c                xIdleTaskHandle
                0xa0000270                xNextTaskUnblockTime
                0xa0000274                uxTaskNumber
                0xa0000278                xNumOfOverflows
                0xa000027c                xYieldPending
                0xa0000280                uxPendedTicks
                0xa0000284                xSchedulerRunning
                0xa0000288                uxTopReadyPriority
                0xa000028c                xTickCount
                0xa0000290                uxCurrentNumberOfTasks
                0xa0000294                uxDeletedTasksWaitingCleanUp
                0xa0000298                pxCurrentTCB
 .sbss          0xa000029c       0x14 build/default/debug/_ext/1128951024/timers.o
 *(.scommon)
 .scommon       0xa00002b0       0x20 build/default/debug/_ext/327000265/drv_usart_static.o
                0xa00002b0                gDrvUSART3Obj
                0xa00002b8                gDrvUSART0Obj
                0xa00002c0                gDrvUSART2Obj
                0xa00002c8                gDrvUSART1Obj
 .scommon       0xa00002d0        0x8 build/default/debug/_ext/340578644/sys_devcon.o
                0xa00002d0                sysDevconObj
 .scommon       0xa00002d8       0x20 build/default/debug/_ext/1688732426/system_init.o
                0xa00002d8                xQueueISR
                0xa00002dc                xTimers
                0xa00002e0                xTimerSending
                0xa00002e4                xQueue
                0xa00002e8                TRANSMIT_Queue
                0xa00002ec                UART_TRANSMIT_Queue
                0xa00002f0                xQueueTh
                0xa00002f4                xQueue2
 .scommon       0xa00002f8        0x0 build/default/debug/_ext/1688732426/system_interrupt.o
 .scommon       0xa00002f8        0x0 build/default/debug/_ext/1360937237/app.o
 .scommon       0xa00002f8        0x4 build/default/debug/_ext/1360937237/Distance.o
                0xa00002f8                distanceData
 .scommon       0xa00002fc        0x4 build/default/debug/_ext/1360937237/IR.o
                0xa00002fc                irData
 .scommon       0xa0000300        0x0 build/default/debug/_ext/1360937237/TxThread.o
 .scommon       0xa0000300        0x0 build/default/debug/_ext/45544379/sensor_queue.o
 .scommon       0xa0000300        0x8 build/default/debug/_ext/1128951024/tasks.o
                0xa0000300                pxDelayedTaskList
                0xa0000304                pxOverflowDelayedTaskList
                0xa0000308                _sbss_end = .
                0xa0000308                . = ALIGN (0x4)

.bss            0xa0000308       0xe0
 *(.dynbss)
 *(COMMON)
 COMMON         0xa0000308       0x18 build/default/debug/_ext/1688732426/system_init.o
                0xa0000308                sysObj
 COMMON         0xa0000320       0xc8 build/default/debug/_ext/1128951024/tasks.o
                0xa0000320                pxReadyTasksLists
                0xa0000384                xPendingReadyList
                0xa0000398                xTasksWaitingTermination
                0xa00003ac                xSuspendedTaskList
                0xa00003c0                xDelayedTaskList2
                0xa00003d4                xDelayedTaskList1
                0xa00003e8                . = ALIGN ((. != 0x0)?0x4:0x1)
                0xa00003e8                . = ALIGN (0x4)
                0xa00003e8                _end = .
                0xa00003e8                _bss_end = .
                0x00020000                _bmxdudba_address = 0x20000
                0x00020000                _bmxdupba_address = 0x20000

/DISCARD/
 *(.pdr)
 *(.rel.dyn)
 *(.note.GNU-stack)
 *(.note.GNU-stack)
 *(.gnu_debuglink)
 *(.gnu.lto_*)
 *(.discard)

.gptab.sdata
 *(.gptab.data)
 *(.gptab.sdata)

.gptab.sbss
 *(.gptab.bss)
 *(.gptab.sbss)

.mdebug.abi32   0xa00003e8        0x0
 *(.mdebug.abi32)
 .mdebug.abi32  0xa00003e8        0x0 c:/program files (x86)/microchip/xc32/v2.15/bin/bin/../../lib/gcc/pic32mx/4.8.3/../../../../pic32mx/lib\software-debug-break.o
 .mdebug.abi32  0xa00003e8        0x0 build/default/debug/_ext/1361460060/drv_adc_static.o
 .mdebug.abi32  0xa00003e8        0x0 build/default/debug/_ext/1407244131/drv_tmr_static.o
 .mdebug.abi32  0xa00003e8        0x0 build/default/debug/_ext/1407244131/drv_tmr_mapping.o
 .mdebug.abi32  0xa00003e8        0x0 build/default/debug/_ext/327000265/drv_usart_mapping.o
 .mdebug.abi32  0xa00003e8        0x0 build/default/debug/_ext/327000265/drv_usart_static.o
 .mdebug.abi32  0xa00003e8        0x0 build/default/debug/_ext/327000265/drv_usart_static_byte_model.o
 .mdebug.abi32  0xa00003e8        0x0 build/default/debug/_ext/639803181/sys_clk_pic32mx.o
 .mdebug.abi32  0xa00003e8        0x0 build/default/debug/_ext/340578644/sys_devcon.o
 .mdebug.abi32  0xa00003e8        0x0 build/default/debug/_ext/340578644/sys_devcon_pic32mx.o
 .mdebug.abi32  0xa00003e8        0x0 build/default/debug/_ext/822048611/sys_ports_static.o
 .mdebug.abi32  0xa00003e8        0x0 build/default/debug/_ext/1688732426/system_init.o
 .mdebug.abi32  0xa00003e8        0x0 build/default/debug/_ext/1688732426/system_interrupt.o
 .mdebug.abi32  0xa00003e8        0x0 build/default/debug/_ext/1688732426/system_exceptions.o
 .mdebug.abi32  0xa00003e8        0x0 build/default/debug/_ext/1688732426/system_tasks.o
 .mdebug.abi32  0xa00003e8        0x0 build/default/debug/_ext/1688732426/rtos_hooks.o
 .mdebug.abi32  0xa00003e8        0x0 build/default/debug/_ext/1360937237/app.o
 .mdebug.abi32  0xa00003e8        0x0 build/default/debug/_ext/1360937237/main.o
 .mdebug.abi32  0xa00003e8        0x0 build/default/debug/_ext/45544379/debug.o
 .mdebug.abi32  0xa00003e8        0x0 build/default/debug/_ext/1360937237/Distance.o
 .mdebug.abi32  0xa00003e8        0x0 build/default/debug/_ext/1360937237/IR.o
 .mdebug.abi32  0xa00003e8        0x0 build/default/debug/_ext/1360937237/TxThread.o
 .mdebug.abi32  0xa00003e8        0x0 build/default/debug/_ext/45544379/JSON.o
 .mdebug.abi32  0xa00003e8        0x0 build/default/debug/_ext/45544379/cJSON.o
 .mdebug.abi32  0xa00003e8        0x0 build/default/debug/_ext/45544379/md5.o
 .mdebug.abi32  0xa00003e8        0x0 build/default/debug/_ext/45544379/sensor_queue.o
 .mdebug.abi32  0xa00003e8        0x0 build/default/debug/_ext/24337685/osal_freertos.o
 .mdebug.abi32  0xa00003e8        0x0 build/default/debug/_ext/122796885/sys_int_pic32.o
 .mdebug.abi32  0xa00003e8        0x0 build/default/debug/_ext/1856876499/heap_1.o
 .mdebug.abi32  0xa00003e8        0x0 build/default/debug/_ext/12131622/port.o
 .mdebug.abi32  0xa00003e8        0x0 build/default/debug/_ext/1128951024/croutine.o
 .mdebug.abi32  0xa00003e8        0x0 build/default/debug/_ext/1128951024/list.o
 .mdebug.abi32  0xa00003e8        0x0 build/default/debug/_ext/1128951024/queue.o
 .mdebug.abi32  0xa00003e8        0x0 build/default/debug/_ext/1128951024/tasks.o
 .mdebug.abi32  0xa00003e8        0x0 build/default/debug/_ext/1128951024/timers.o
 .mdebug.abi32  0xa00003e8        0x0 build/default/debug/_ext/1128951024/event_groups.o
 .mdebug.abi32  0xa00003e8        0x0 build/default/debug/_ext/1128951024/stream_buffer.o
 .mdebug.abi32  0xa00003e8        0x0 c:/program files (x86)/microchip/xc32/v2.15/bin/bin/../../lib/gcc/pic32mx/4.8.3\libgcc.a(floatunsisf.o)
 .mdebug.abi32  0xa00003e8        0x0 c:/program files (x86)/microchip/xc32/v2.15/bin/bin/../../lib/gcc/pic32mx/4.8.3/../../../../pic32mx/lib\libpic32.a(default-bootstrap-exception-handler.o)
 .mdebug.abi32  0xa00003e8        0x0 c:/program files (x86)/microchip/xc32/v2.15/bin/bin/../../lib/gcc/pic32mx/4.8.3/../../../../pic32mx/lib\libpic32.a(default-on-reset.o)
 .mdebug.abi32  0xa00003e8        0x0 c:/program files (x86)/microchip/xc32/v2.15/bin/bin/../../lib/gcc/pic32mx/4.8.3/../../../../pic32mx/lib\libpic32.a(default-on-bootstrap.o)
 .mdebug.abi32  0xa00003e8        0x0 c:/program files (x86)/microchip/xc32/v2.15/bin/bin/../../lib/gcc/pic32mx/4.8.3/../../../../pic32mx/lib\libpic32.a(defaultinterrupt.o)
 .mdebug.abi32  0xa00003e8        0x0 c:/program files (x86)/microchip/xc32/v2.15/bin/bin/../../lib/gcc/pic32mx/4.8.3/../../../../pic32mx/lib\libc.a(ctypef.o)
 .mdebug.abi32  0xa00003e8        0x0 c:/program files (x86)/microchip/xc32/v2.15/bin/bin/../../lib/gcc/pic32mx/4.8.3/../../../../pic32mx/lib\libc.a(malloc.o)
 .mdebug.abi32  0xa00003e8        0x0 c:/program files (x86)/microchip/xc32/v2.15/bin/bin/../../lib/gcc/pic32mx/4.8.3/../../../../pic32mx/lib\libc.a(strcat.o)
 .mdebug.abi32  0xa00003e8        0x0 c:/program files (x86)/microchip/xc32/v2.15/bin/bin/../../lib/gcc/pic32mx/4.8.3/../../../../pic32mx/lib\libc.a(strncmp.o)
 .mdebug.abi32  0xa00003e8        0x0 c:/program files (x86)/microchip/xc32/v2.15/bin/bin/../../lib/gcc/pic32mx/4.8.3/../../../../pic32mx/lib\libc.a(strtod.o)
 .mdebug.abi32  0xa00003e8        0x0 c:/program files (x86)/microchip/xc32/v2.15/bin/bin/../../lib/gcc/pic32mx/4.8.3/../../../../pic32mx/lib\libc.a(sprintf_cdgGnopuxX.eo)
 .mdebug.abi32  0xa00003e8        0x0 c:/program files (x86)/microchip/xc32/v2.15/bin/bin/../../lib/gcc/pic32mx/4.8.3/../../../../pic32mx/lib\libc.a(sscanf_gG.eo)
 .mdebug.abi32  0xa00003e8        0x0 c:/program files (x86)/microchip/xc32/v2.15/bin/bin/../../lib/gcc/pic32mx/4.8.3/../../../../pic32mx/lib\libc.a(ctype.o)
 .mdebug.abi32  0xa00003e8        0x0 c:/program files (x86)/microchip/xc32/v2.15/bin/bin/../../lib/gcc/pic32mx/4.8.3/../../../../pic32mx/lib\libc.a(doprnt_cdgGnopuxX.eo)
 .mdebug.abi32  0xa00003e8        0x0 c:/program files (x86)/microchip/xc32/v2.15/bin/bin/../../lib/gcc/pic32mx/4.8.3/../../../../pic32mx/lib\libc.a(doscan_gG.eo)
 .mdebug.abi32  0xa00003e8        0x0 c:/program files (x86)/microchip/xc32/v2.15/bin/bin/../../lib/gcc/pic32mx/4.8.3/../../../../pic32mx/lib\libc.a(fgetc.o)
 .mdebug.abi32  0xa00003e8        0x0 c:/program files (x86)/microchip/xc32/v2.15/bin/bin/../../lib/gcc/pic32mx/4.8.3/../../../../pic32mx/lib\libc.a(_fputc_simple.o)
 .mdebug.abi32  0xa00003e8        0x0 c:/program files (x86)/microchip/xc32/v2.15/bin/bin/../../lib/gcc/pic32mx/4.8.3/../../../../pic32mx/lib\libc.a(atoi.o)
 .mdebug.abi32  0xa00003e8        0x0 c:/program files (x86)/microchip/xc32/v2.15/bin/bin/../../lib/gcc/pic32mx/4.8.3/../../../../pic32mx/lib\libc.a(ldpowers.o)
 .mdebug.abi32  0xa00003e8        0x0 c:/program files (x86)/microchip/xc32/v2.15/bin/bin/../../lib/gcc/pic32mx/4.8.3/../../../../pic32mx/lib\libc.a(strtof.o)
 .mdebug.abi32  0xa00003e8        0x0 c:/program files (x86)/microchip/xc32/v2.15/bin/bin/../../lib/gcc/pic32mx/4.8.3/../../../../pic32mx/lib\libc.a(ungetc.o)
 .mdebug.abi32  0xa00003e8        0x0 c:/program files (x86)/microchip/xc32/v2.15/bin/bin/../../lib/gcc/pic32mx/4.8.3/../../../../pic32mx/lib\libc.a(_iob.o)
 .mdebug.abi32  0xa00003e8        0x0 c:/program files (x86)/microchip/xc32/v2.15/bin/bin/../../lib/gcc/pic32mx/4.8.3/../../../../pic32mx/lib\libc.a(filbuf.o)
 .mdebug.abi32  0xa00003e8        0x0 c:/program files (x86)/microchip/xc32/v2.15/bin/bin/../../lib/gcc/pic32mx/4.8.3/../../../../pic32mx/lib\libc.a(_flsbuf_simple.o)
 .mdebug.abi32  0xa00003e8        0x0 c:/program files (x86)/microchip/xc32/v2.15/bin/bin/../../lib/gcc/pic32mx/4.8.3/../../../../pic32mx/lib\libc.a(fflush.o)
 .mdebug.abi32  0xa00003e8        0x0 c:/program files (x86)/microchip/xc32/v2.15/bin/bin/../../lib/gcc/pic32mx/4.8.3/../../../../pic32mx/lib\libm.a(__strtod.o)
 .mdebug.abi32  0xa00003e8        0x0 c:/program files (x86)/microchip/xc32/v2.15/bin/bin/../../lib/gcc/pic32mx/4.8.3/../../../../pic32mx/lib\libm.a(__strtof.o)
 .mdebug.abi32  0xa00003e8        0x0 c:/program files (x86)/microchip/xc32/v2.15/bin/bin/../../lib/gcc/pic32mx/4.8.3/../../../../pic32mx/lib\libe.a(_fixunsdfdi.o)
 .mdebug.abi32  0xa00003e8        0x0 c:/program files (x86)/microchip/xc32/v2.15/bin/bin/../../lib/gcc/pic32mx/4.8.3/../../../../pic32mx/lib\libe.a(_orderdf2.o)
 .mdebug.abi32  0xa00003e8        0x0 c:/program files (x86)/microchip/xc32/v2.15/bin/bin/../../lib/gcc/pic32mx/4.8.3/../../../../pic32mx/lib\libe.a(_ldexp.o)
 .mdebug.abi32  0xa00003e8        0x0 c:/program files (x86)/microchip/xc32/v2.15/bin/bin/../../lib/gcc/pic32mx/4.8.3/../../../../pic32mx/lib\libe.a(_ldexpf.o)
 .mdebug.abi32  0xa00003e8        0x0 c:/program files (x86)/microchip/xc32/v2.15/bin/bin/../../lib/gcc/pic32mx/4.8.3/../../../../pic32mx/lib\libe.a(_fixdfdi.o)
 .mdebug.abi32  0xa00003e8        0x0 c:/program files (x86)/microchip/xc32/v2.15/bin/bin/../../lib/gcc/pic32mx/4.8.3\libgcc.a(_lshrdi3.o)
 .mdebug.abi32  0xa00003e8        0x0 c:/program files (x86)/microchip/xc32/v2.15/bin/bin/../../lib/gcc/pic32mx/4.8.3\libgcc.a(_ashldi3.o)
 .mdebug.abi32  0xa00003e8        0x0 c:/program files (x86)/microchip/xc32/v2.15/bin/bin/../../lib/gcc/pic32mx/4.8.3\libgcc.a(_floatundidf.o)
 .mdebug.abi32  0xa00003e8        0x0 c:/program files (x86)/microchip/xc32/v2.15/bin/bin/../../lib/gcc/pic32mx/4.8.3\libgcc.a(_udivdi3.o)
 .mdebug.abi32  0xa00003e8        0x0 c:/program files (x86)/microchip/xc32/v2.15/bin/bin/../../lib/gcc/pic32mx/4.8.3\libgcc.a(_umoddi3.o)
 .mdebug.abi32  0xa00003e8        0x0 c:/program files (x86)/microchip/xc32/v2.15/bin/bin/../../lib/gcc/pic32mx/4.8.3\libgcc.a(floatunsidf.o)
 .mdebug.abi32  0xa00003e8        0x0 c:/program files (x86)/microchip/xc32/v2.15/bin/bin/../../lib/gcc/pic32mx/4.8.3/../../../../pic32mx/lib\libpic32.a(sbrk.o)
 .mdebug.abi32  0xa00003e8        0x0 c:/program files (x86)/microchip/xc32/v2.15/bin/bin/../../lib/gcc/pic32mx/4.8.3/../../../../pic32mx/lib\libpic32.a(read.o)
 .mdebug.abi32  0xa00003e8        0x0 c:/program files (x86)/microchip/xc32/v2.15/bin/bin/../../lib/gcc/pic32mx/4.8.3/../../../../pic32mx/lib\libpic32.a(write.o)
 .mdebug.abi32  0xa00003e8        0x0 c:/program files (x86)/microchip/xc32/v2.15/bin/bin/../../lib/gcc/pic32mx/4.8.3/../../../../pic32mx/lib\libpic32.a(xc32_uart.o)
 .mdebug.abi32  0xa00003e8        0x0 c:/program files (x86)/microchip/xc32/v2.15/bin/bin/../../lib/gcc/pic32mx/4.8.3/../../../../pic32mx/lib\libpic32.a(errno.o)
 .mdebug.abi32  0xa00003e8        0x0 c:/program files (x86)/microchip/xc32/v2.15/bin/bin/../../lib/gcc/pic32mx/4.8.3/../../../../pic32mx/lib\libpic32.a(_mon_putc.o)

.mdebug.abiN32
 *(.mdebug.abiN32)

.mdebug.abi64
 *(.mdebug.abi64)

.mdebug.abiO64
 *(.mdebug.abiO64)

.mdebug.eabi32
 *(.mdebug.eabi32)

.mdebug.eabi64
 *(.mdebug.eabi64)

.gcc_compiled_long32
 *(.gcc_compiled_long32)

.gcc_compiled_long64
 *(.gcc_compiled_long64)

.stab
 *(.stab)

.stabstr
 *(.stabstr)

.stab.excl
 *(.stab.excl)

.stab.exclstr
 *(.stab.exclstr)

.stab.index
 *(.stab.index)

.stab.indexstr
 *(.stab.indexstr)

.comment        0x00000000      0x3d2
 *(.comment)
 .comment       0x00000000       0x3c c:/program files (x86)/microchip/xc32/v2.15/bin/bin/../../lib/gcc/pic32mx/4.8.3/../../../../pic32mx/lib\software-debug-break.o
                                 0x3d (size before relaxing)
 .comment       0x00000000       0x3d build/default/debug/_ext/1361460060/drv_adc_static.o
 .comment       0x00000000       0x3d build/default/debug/_ext/1407244131/drv_tmr_static.o
 .comment       0x00000000       0x3d build/default/debug/_ext/1407244131/drv_tmr_mapping.o
 .comment       0x00000000       0x3d build/default/debug/_ext/327000265/drv_usart_mapping.o
 .comment       0x00000000       0x3d build/default/debug/_ext/327000265/drv_usart_static.o
 .comment       0x00000000       0x3d build/default/debug/_ext/327000265/drv_usart_static_byte_model.o
 .comment       0x00000000       0x3d build/default/debug/_ext/639803181/sys_clk_pic32mx.o
 .comment       0x00000000       0x3d build/default/debug/_ext/340578644/sys_devcon.o
 .comment       0x00000000       0x3d build/default/debug/_ext/340578644/sys_devcon_pic32mx.o
 .comment       0x00000000       0x3d build/default/debug/_ext/822048611/sys_ports_static.o
 .comment       0x00000000       0x3d build/default/debug/_ext/1688732426/system_init.o
 .comment       0x00000000       0x3d build/default/debug/_ext/1688732426/system_interrupt.o
 .comment       0x00000000       0x3d build/default/debug/_ext/1688732426/system_exceptions.o
 .comment       0x00000000       0x3d build/default/debug/_ext/1688732426/system_tasks.o
 .comment       0x00000000       0x3d build/default/debug/_ext/1688732426/rtos_hooks.o
 .comment       0x00000000       0x3d build/default/debug/_ext/1360937237/app.o
 .comment       0x00000000       0x3d build/default/debug/_ext/1360937237/main.o
 .comment       0x00000000       0x3d build/default/debug/_ext/45544379/debug.o
 .comment       0x00000000       0x3d build/default/debug/_ext/1360937237/Distance.o
 .comment       0x00000000       0x3d build/default/debug/_ext/1360937237/IR.o
 .comment       0x00000000       0x3d build/default/debug/_ext/1360937237/TxThread.o
 .comment       0x00000000       0x3d build/default/debug/_ext/45544379/JSON.o
 .comment       0x00000000       0x3d build/default/debug/_ext/45544379/cJSON.o
 .comment       0x00000000       0x3d build/default/debug/_ext/45544379/md5.o
 .comment       0x00000000       0x3d build/default/debug/_ext/45544379/sensor_queue.o
 .comment       0x00000000       0x3d build/default/debug/_ext/24337685/osal_freertos.o
 .comment       0x00000000       0x3d build/default/debug/_ext/122796885/sys_int_pic32.o
 .comment       0x00000000       0x3d build/default/debug/_ext/1856876499/heap_1.o
 .comment       0x00000000       0x3d build/default/debug/_ext/12131622/port.o
 .comment       0x00000000       0x3d build/default/debug/_ext/1128951024/croutine.o
 .comment       0x00000000       0x3d build/default/debug/_ext/1128951024/list.o
 .comment       0x00000000       0x3d build/default/debug/_ext/1128951024/queue.o
 .comment       0x00000000       0x3d build/default/debug/_ext/1128951024/tasks.o
 .comment       0x00000000       0x3d build/default/debug/_ext/1128951024/timers.o
 .comment       0x00000000       0x3d build/default/debug/_ext/1128951024/event_groups.o
 .comment       0x00000000       0x3d build/default/debug/_ext/1128951024/stream_buffer.o
 .comment       0x00000000       0x3d c:/program files (x86)/microchip/xc32/v2.15/bin/bin/../../lib/gcc/pic32mx/4.8.3\libgcc.a(floatunsisf.o)
 .comment       0x0000003c       0x18 c:/program files (x86)/microchip/xc32/v2.15/bin/bin/../../lib/gcc/pic32mx/4.8.3/../../../../pic32mx/lib\libpic32.a(memset.o)
                                 0x19 (size before relaxing)
 .comment       0x00000054       0x19 c:/program files (x86)/microchip/xc32/v2.15/bin/bin/../../lib/gcc/pic32mx/4.8.3/../../../../pic32mx/lib\libpic32.a(strlen.o)
                                 0x1a (size before relaxing)
 .comment       0x00000000       0x3d c:/program files (x86)/microchip/xc32/v2.15/bin/bin/../../lib/gcc/pic32mx/4.8.3/../../../../pic32mx/lib\libpic32.a(default-bootstrap-exception-handler.o)
 .comment       0x00000000       0x3d c:/program files (x86)/microchip/xc32/v2.15/bin/bin/../../lib/gcc/pic32mx/4.8.3/../../../../pic32mx/lib\libpic32.a(default-on-reset.o)
 .comment       0x00000000       0x3d c:/program files (x86)/microchip/xc32/v2.15/bin/bin/../../lib/gcc/pic32mx/4.8.3/../../../../pic32mx/lib\libpic32.a(default-on-bootstrap.o)
 .comment       0x00000000       0x3d c:/program files (x86)/microchip/xc32/v2.15/bin/bin/../../lib/gcc/pic32mx/4.8.3/../../../../pic32mx/lib\libpic32.a(defaultinterrupt.o)
 .comment       0x0000006d       0x4f c:/program files (x86)/microchip/xc32/v2.15/bin/bin/../../lib/gcc/pic32mx/4.8.3/../../../../pic32mx/lib\libc.a(ctypef.o)
                                 0x8c (size before relaxing)
 .comment       0x00000000       0x3d c:/program files (x86)/microchip/xc32/v2.15/bin/bin/../../lib/gcc/pic32mx/4.8.3/../../../../pic32mx/lib\libc.a(malloc.o)
 .comment       0x00000000       0x3d c:/program files (x86)/microchip/xc32/v2.15/bin/bin/../../lib/gcc/pic32mx/4.8.3/../../../../pic32mx/lib\libc.a(strcat.o)
 .comment       0x00000000       0x3d c:/program files (x86)/microchip/xc32/v2.15/bin/bin/../../lib/gcc/pic32mx/4.8.3/../../../../pic32mx/lib\libc.a(strncmp.o)
 .comment       0x00000000       0x3d c:/program files (x86)/microchip/xc32/v2.15/bin/bin/../../lib/gcc/pic32mx/4.8.3/../../../../pic32mx/lib\libc.a(strtod.o)
 .comment       0x00000000       0x3d c:/program files (x86)/microchip/xc32/v2.15/bin/bin/../../lib/gcc/pic32mx/4.8.3/../../../../pic32mx/lib\libc.a(sprintf_cdgGnopuxX.eo)
 .comment       0x00000000       0x3d c:/program files (x86)/microchip/xc32/v2.15/bin/bin/../../lib/gcc/pic32mx/4.8.3/../../../../pic32mx/lib\libc.a(sscanf_gG.eo)
 .comment       0x000000bc       0x4e c:/program files (x86)/microchip/xc32/v2.15/bin/bin/../../lib/gcc/pic32mx/4.8.3/../../../../pic32mx/lib\libc.a(ctype.o)
                                 0x8b (size before relaxing)
 .comment       0x00000000       0x3d c:/program files (x86)/microchip/xc32/v2.15/bin/bin/../../lib/gcc/pic32mx/4.8.3/../../../../pic32mx/lib\libc.a(doprnt_cdgGnopuxX.eo)
 .comment       0x00000000       0x3d c:/program files (x86)/microchip/xc32/v2.15/bin/bin/../../lib/gcc/pic32mx/4.8.3/../../../../pic32mx/lib\libc.a(doscan_gG.eo)
 .comment       0x00000000       0x3d c:/program files (x86)/microchip/xc32/v2.15/bin/bin/../../lib/gcc/pic32mx/4.8.3/../../../../pic32mx/lib\libc.a(fgetc.o)
 .comment       0x00000000       0x3d c:/program files (x86)/microchip/xc32/v2.15/bin/bin/../../lib/gcc/pic32mx/4.8.3/../../../../pic32mx/lib\libc.a(_fputc_simple.o)
 .comment       0x00000000       0x3d c:/program files (x86)/microchip/xc32/v2.15/bin/bin/../../lib/gcc/pic32mx/4.8.3/../../../../pic32mx/lib\libc.a(atoi.o)
 .comment       0x00000000       0x3d c:/program files (x86)/microchip/xc32/v2.15/bin/bin/../../lib/gcc/pic32mx/4.8.3/../../../../pic32mx/lib\libc.a(ldpowers.o)
 .comment       0x00000000       0x3d c:/program files (x86)/microchip/xc32/v2.15/bin/bin/../../lib/gcc/pic32mx/4.8.3/../../../../pic32mx/lib\libc.a(strtof.o)
 .comment       0x00000000       0x3d c:/program files (x86)/microchip/xc32/v2.15/bin/bin/../../lib/gcc/pic32mx/4.8.3/../../../../pic32mx/lib\libc.a(ungetc.o)
 .comment       0x00000000       0x3d c:/program files (x86)/microchip/xc32/v2.15/bin/bin/../../lib/gcc/pic32mx/4.8.3/../../../../pic32mx/lib\libc.a(_iob.o)
 .comment       0x00000000       0x3d c:/program files (x86)/microchip/xc32/v2.15/bin/bin/../../lib/gcc/pic32mx/4.8.3/../../../../pic32mx/lib\libc.a(filbuf.o)
 .comment       0x00000000       0x3d c:/program files (x86)/microchip/xc32/v2.15/bin/bin/../../lib/gcc/pic32mx/4.8.3/../../../../pic32mx/lib\libc.a(_flsbuf_simple.o)
 .comment       0x00000000       0x3d c:/program files (x86)/microchip/xc32/v2.15/bin/bin/../../lib/gcc/pic32mx/4.8.3/../../../../pic32mx/lib\libc.a(fflush.o)
 .comment       0x0000010a       0x9d c:/program files (x86)/microchip/xc32/v2.15/bin/bin/../../lib/gcc/pic32mx/4.8.3/../../../../pic32mx/lib\libm.a(__strtod.o)
                                 0xda (size before relaxing)
 .comment       0x000001a7       0x4f c:/program files (x86)/microchip/xc32/v2.15/bin/bin/../../lib/gcc/pic32mx/4.8.3/../../../../pic32mx/lib\libm.a(__strtof.o)
                                 0xda (size before relaxing)
 .comment       0x000001f6       0x51 c:/program files (x86)/microchip/xc32/v2.15/bin/bin/../../lib/gcc/pic32mx/4.8.3/../../../../pic32mx/lib\libe.a(_fixunsdfdi.o)
                                 0xdc (size before relaxing)
 .comment       0x00000247       0x50 c:/program files (x86)/microchip/xc32/v2.15/bin/bin/../../lib/gcc/pic32mx/4.8.3/../../../../pic32mx/lib\libe.a(_orderdf2.o)
                                 0xdb (size before relaxing)
 .comment       0x00000297       0x50 c:/program files (x86)/microchip/xc32/v2.15/bin/bin/../../lib/gcc/pic32mx/4.8.3/../../../../pic32mx/lib\libe.a(_ldexp.o)
                                 0xdb (size before relaxing)
 .comment       0x000002e7       0x50 c:/program files (x86)/microchip/xc32/v2.15/bin/bin/../../lib/gcc/pic32mx/4.8.3/../../../../pic32mx/lib\libe.a(_ldexpf.o)
                                 0xdb (size before relaxing)
 .comment       0x00000337       0x50 c:/program files (x86)/microchip/xc32/v2.15/bin/bin/../../lib/gcc/pic32mx/4.8.3/../../../../pic32mx/lib\libe.a(_fixdfdi.o)
                                 0xdb (size before relaxing)
 .comment       0x00000000       0x3d c:/program files (x86)/microchip/xc32/v2.15/bin/bin/../../lib/gcc/pic32mx/4.8.3\libgcc.a(_lshrdi3.o)
 .comment       0x00000000       0x3d c:/program files (x86)/microchip/xc32/v2.15/bin/bin/../../lib/gcc/pic32mx/4.8.3\libgcc.a(_ashldi3.o)
 .comment       0x00000000       0x3d c:/program files (x86)/microchip/xc32/v2.15/bin/bin/../../lib/gcc/pic32mx/4.8.3\libgcc.a(_floatundidf.o)
 .comment       0x00000000       0x3d c:/program files (x86)/microchip/xc32/v2.15/bin/bin/../../lib/gcc/pic32mx/4.8.3\libgcc.a(_udivdi3.o)
 .comment       0x00000000       0x3d c:/program files (x86)/microchip/xc32/v2.15/bin/bin/../../lib/gcc/pic32mx/4.8.3\libgcc.a(_umoddi3.o)
 .comment       0x00000000       0x3d c:/program files (x86)/microchip/xc32/v2.15/bin/bin/../../lib/gcc/pic32mx/4.8.3\libgcc.a(floatunsidf.o)
 .comment       0x00000387       0x4b c:/program files (x86)/microchip/xc32/v2.15/bin/bin/../../lib/gcc/pic32mx/4.8.3/../../../../pic32mx/lib\libpic32.a(sbrk.o)
                                 0x88 (size before relaxing)
 .comment       0x00000000       0x3d c:/program files (x86)/microchip/xc32/v2.15/bin/bin/../../lib/gcc/pic32mx/4.8.3/../../../../pic32mx/lib\libpic32.a(read.o)
 .comment       0x00000000       0x3d c:/program files (x86)/microchip/xc32/v2.15/bin/bin/../../lib/gcc/pic32mx/4.8.3/../../../../pic32mx/lib\libpic32.a(write.o)
 .comment       0x00000000       0x3d c:/program files (x86)/microchip/xc32/v2.15/bin/bin/../../lib/gcc/pic32mx/4.8.3/../../../../pic32mx/lib\libpic32.a(xc32_uart.o)
 .comment       0x00000000       0x3d c:/program files (x86)/microchip/xc32/v2.15/bin/bin/../../lib/gcc/pic32mx/4.8.3/../../../../pic32mx/lib\libpic32.a(errno.o)
 .comment       0x00000000       0x3d c:/program files (x86)/microchip/xc32/v2.15/bin/bin/../../lib/gcc/pic32mx/4.8.3/../../../../pic32mx/lib\libpic32.a(_mon_putc.o)

.debug
 *(.debug)

.line
 *(.line)

.debug_srcinfo
 *(.debug_srcinfo)

.debug_sfnames
 *(.debug_sfnames)

.debug_aranges  0x00000000     0x1b18
 *(.debug_aranges)
 .debug_aranges
                0x00000000       0x20 c:/program files (x86)/microchip/xc32/v2.15/bin/bin/../../lib/gcc/pic32mx/4.8.3/../../../../pic32mx/lib\software-debug-break.o
 .debug_aranges
                0x00000020       0x78 build/default/debug/_ext/1361460060/drv_adc_static.o
 .debug_aranges
                0x00000098      0x108 build/default/debug/_ext/1407244131/drv_tmr_static.o
 .debug_aranges
                0x000001a0       0xe8 build/default/debug/_ext/1407244131/drv_tmr_mapping.o
 .debug_aranges
                0x00000288       0xb0 build/default/debug/_ext/327000265/drv_usart_mapping.o
 .debug_aranges
                0x00000338      0x1d8 build/default/debug/_ext/327000265/drv_usart_static.o
 .debug_aranges
                0x00000510       0xd8 build/default/debug/_ext/327000265/drv_usart_static_byte_model.o
 .debug_aranges
                0x000005e8       0x50 build/default/debug/_ext/639803181/sys_clk_pic32mx.o
 .debug_aranges
                0x00000638       0x78 build/default/debug/_ext/340578644/sys_devcon.o
 .debug_aranges
                0x000006b0       0x20 build/default/debug/_ext/340578644/sys_devcon_pic32mx.o
 .debug_aranges
                0x000006d0      0x148 build/default/debug/_ext/822048611/sys_ports_static.o
 .debug_aranges
                0x00000818       0x20 build/default/debug/_ext/1688732426/system_init.o
 .debug_aranges
                0x00000838       0x50 build/default/debug/_ext/1688732426/system_interrupt.o
 .debug_aranges
                0x00000888       0x20 build/default/debug/_ext/1688732426/system_exceptions.o
 .debug_aranges
                0x000008a8       0x48 build/default/debug/_ext/1688732426/system_tasks.o
 .debug_aranges
                0x000008f0       0x88 build/default/debug/_ext/1688732426/system_interrupt_a.o
 .debug_aranges
                0x00000978       0x28 build/default/debug/_ext/1688732426/rtos_hooks.o
 .debug_aranges
                0x000009a0       0x30 build/default/debug/_ext/1360937237/app.o
 .debug_aranges
                0x000009d0       0x20 build/default/debug/_ext/1360937237/main.o
 .debug_aranges
                0x000009f0       0x48 build/default/debug/_ext/45544379/debug.o
 .debug_aranges
                0x00000a38       0x28 build/default/debug/_ext/1360937237/Distance.o
 .debug_aranges
                0x00000a60       0x30 build/default/debug/_ext/1360937237/IR.o
 .debug_aranges
                0x00000a90       0x20 build/default/debug/_ext/1360937237/TxThread.o
 .debug_aranges
                0x00000ab0       0x80 build/default/debug/_ext/45544379/JSON.o
 .debug_aranges
                0x00000b30      0x2f0 build/default/debug/_ext/45544379/cJSON.o
 .debug_aranges
                0x00000e20       0x38 build/default/debug/_ext/45544379/md5.o
 .debug_aranges
                0x00000e58       0xb0 build/default/debug/_ext/45544379/sensor_queue.o
 .debug_aranges
                0x00000f08       0x88 build/default/debug/_ext/24337685/osal_freertos.o
 .debug_aranges
                0x00000f90       0x48 build/default/debug/_ext/122796885/sys_int_pic32.o
 .debug_aranges
                0x00000fd8       0x48 build/default/debug/_ext/1856876499/heap_1.o
 .debug_aranges
                0x00001020       0x58 build/default/debug/_ext/12131622/port.o
 .debug_aranges
                0x00001078       0x20 build/default/debug/_ext/12131622/port_asm.o
 .debug_aranges
                0x00001098       0x18 build/default/debug/_ext/1128951024/croutine.o
 .debug_aranges
                0x000010b0       0x40 build/default/debug/_ext/1128951024/list.o
 .debug_aranges
                0x000010f0       0xd0 build/default/debug/_ext/1128951024/queue.o
 .debug_aranges
                0x000011c0      0x1c0 build/default/debug/_ext/1128951024/tasks.o
 .debug_aranges
                0x00001380       0x88 build/default/debug/_ext/1128951024/timers.o
 .debug_aranges
                0x00001408       0x60 build/default/debug/_ext/1128951024/event_groups.o
 .debug_aranges
                0x00001468       0xb0 build/default/debug/_ext/1128951024/stream_buffer.o
 .debug_aranges
                0x00001518       0x40 C:\Users\MOQIZH~1\AppData\Local\Temp\ccYY4veD.o
 .debug_aranges
                0x00001558       0x20 c:/program files (x86)/microchip/xc32/v2.15/bin/bin/../../lib/gcc/pic32mx/4.8.3\libgcc.a(floatunsisf.o)
 .debug_aranges
                0x00001578       0x20 c:/program files (x86)/microchip/xc32/v2.15/bin/bin/../../lib/gcc/pic32mx/4.8.3/../../../../pic32mx/lib\libpic32.a(default-bootstrap-exception-handler.o)
 .debug_aranges
                0x00001598       0x20 c:/program files (x86)/microchip/xc32/v2.15/bin/bin/../../lib/gcc/pic32mx/4.8.3/../../../../pic32mx/lib\libpic32.a(default-on-reset.o)
 .debug_aranges
                0x000015b8       0x20 c:/program files (x86)/microchip/xc32/v2.15/bin/bin/../../lib/gcc/pic32mx/4.8.3/../../../../pic32mx/lib\libpic32.a(default-on-bootstrap.o)
 .debug_aranges
                0x000015d8       0x20 c:/program files (x86)/microchip/xc32/v2.15/bin/bin/../../lib/gcc/pic32mx/4.8.3/../../../../pic32mx/lib\libpic32.a(defaultinterrupt.o)
 .debug_aranges
                0x000015f8       0xa0 c:/program files (x86)/microchip/xc32/v2.15/bin/bin/../../lib/gcc/pic32mx/4.8.3/../../../../pic32mx/lib\libc.a(ctypef.o)
 .debug_aranges
                0x00001698       0x30 c:/program files (x86)/microchip/xc32/v2.15/bin/bin/../../lib/gcc/pic32mx/4.8.3/../../../../pic32mx/lib\libc.a(malloc.o)
 .debug_aranges
                0x000016c8       0x20 c:/program files (x86)/microchip/xc32/v2.15/bin/bin/../../lib/gcc/pic32mx/4.8.3/../../../../pic32mx/lib\libc.a(strcat.o)
 .debug_aranges
                0x000016e8       0x20 c:/program files (x86)/microchip/xc32/v2.15/bin/bin/../../lib/gcc/pic32mx/4.8.3/../../../../pic32mx/lib\libc.a(strncmp.o)
 .debug_aranges
                0x00001708       0x28 c:/program files (x86)/microchip/xc32/v2.15/bin/bin/../../lib/gcc/pic32mx/4.8.3/../../../../pic32mx/lib\libc.a(strtod.o)
 .debug_aranges
                0x00001730       0x20 c:/program files (x86)/microchip/xc32/v2.15/bin/bin/../../lib/gcc/pic32mx/4.8.3/../../../../pic32mx/lib\libc.a(sprintf_cdgGnopuxX.eo)
 .debug_aranges
                0x00001750       0x20 c:/program files (x86)/microchip/xc32/v2.15/bin/bin/../../lib/gcc/pic32mx/4.8.3/../../../../pic32mx/lib\libc.a(sscanf_gG.eo)
 .debug_aranges
                0x00001770       0x30 c:/program files (x86)/microchip/xc32/v2.15/bin/bin/../../lib/gcc/pic32mx/4.8.3/../../../../pic32mx/lib\libc.a(doprnt_cdgGnopuxX.eo)
 .debug_aranges
                0x000017a0       0x30 c:/program files (x86)/microchip/xc32/v2.15/bin/bin/../../lib/gcc/pic32mx/4.8.3/../../../../pic32mx/lib\libc.a(doscan_gG.eo)
 .debug_aranges
                0x000017d0       0x20 c:/program files (x86)/microchip/xc32/v2.15/bin/bin/../../lib/gcc/pic32mx/4.8.3/../../../../pic32mx/lib\libc.a(fgetc.o)
 .debug_aranges
                0x000017f0       0x20 c:/program files (x86)/microchip/xc32/v2.15/bin/bin/../../lib/gcc/pic32mx/4.8.3/../../../../pic32mx/lib\libc.a(_fputc_simple.o)
 .debug_aranges
                0x00001810       0x20 c:/program files (x86)/microchip/xc32/v2.15/bin/bin/../../lib/gcc/pic32mx/4.8.3/../../../../pic32mx/lib\libc.a(atoi.o)
 .debug_aranges
                0x00001830       0x28 c:/program files (x86)/microchip/xc32/v2.15/bin/bin/../../lib/gcc/pic32mx/4.8.3/../../../../pic32mx/lib\libc.a(strtof.o)
 .debug_aranges
                0x00001858       0x20 c:/program files (x86)/microchip/xc32/v2.15/bin/bin/../../lib/gcc/pic32mx/4.8.3/../../../../pic32mx/lib\libc.a(ungetc.o)
 .debug_aranges
                0x00001878       0x20 c:/program files (x86)/microchip/xc32/v2.15/bin/bin/../../lib/gcc/pic32mx/4.8.3/../../../../pic32mx/lib\libc.a(filbuf.o)
 .debug_aranges
                0x00001898       0x20 c:/program files (x86)/microchip/xc32/v2.15/bin/bin/../../lib/gcc/pic32mx/4.8.3/../../../../pic32mx/lib\libc.a(_flsbuf_simple.o)
 .debug_aranges
                0x000018b8       0x20 c:/program files (x86)/microchip/xc32/v2.15/bin/bin/../../lib/gcc/pic32mx/4.8.3/../../../../pic32mx/lib\libc.a(fflush.o)
 .debug_aranges
                0x000018d8       0x20 c:/program files (x86)/microchip/xc32/v2.15/bin/bin/../../lib/gcc/pic32mx/4.8.3/../../../../pic32mx/lib\libm.a(__strtod.o)
 .debug_aranges
                0x000018f8       0x20 c:/program files (x86)/microchip/xc32/v2.15/bin/bin/../../lib/gcc/pic32mx/4.8.3/../../../../pic32mx/lib\libm.a(__strtof.o)
 .debug_aranges
                0x00001918       0x20 c:/program files (x86)/microchip/xc32/v2.15/bin/bin/../../lib/gcc/pic32mx/4.8.3/../../../../pic32mx/lib\libe.a(_fixunsdfdi.o)
 .debug_aranges
                0x00001938       0x20 c:/program files (x86)/microchip/xc32/v2.15/bin/bin/../../lib/gcc/pic32mx/4.8.3/../../../../pic32mx/lib\libe.a(_orderdf2.o)
 .debug_aranges
                0x00001958       0x20 c:/program files (x86)/microchip/xc32/v2.15/bin/bin/../../lib/gcc/pic32mx/4.8.3/../../../../pic32mx/lib\libe.a(_ldexp.o)
 .debug_aranges
                0x00001978       0x20 c:/program files (x86)/microchip/xc32/v2.15/bin/bin/../../lib/gcc/pic32mx/4.8.3/../../../../pic32mx/lib\libe.a(_ldexpf.o)
 .debug_aranges
                0x00001998       0x20 c:/program files (x86)/microchip/xc32/v2.15/bin/bin/../../lib/gcc/pic32mx/4.8.3/../../../../pic32mx/lib\libe.a(_fixdfdi.o)
 .debug_aranges
                0x000019b8       0x20 c:/program files (x86)/microchip/xc32/v2.15/bin/bin/../../lib/gcc/pic32mx/4.8.3\libgcc.a(_lshrdi3.o)
 .debug_aranges
                0x000019d8       0x20 c:/program files (x86)/microchip/xc32/v2.15/bin/bin/../../lib/gcc/pic32mx/4.8.3\libgcc.a(_ashldi3.o)
 .debug_aranges
                0x000019f8       0x20 c:/program files (x86)/microchip/xc32/v2.15/bin/bin/../../lib/gcc/pic32mx/4.8.3\libgcc.a(_floatundidf.o)
 .debug_aranges
                0x00001a18       0x20 c:/program files (x86)/microchip/xc32/v2.15/bin/bin/../../lib/gcc/pic32mx/4.8.3\libgcc.a(_udivdi3.o)
 .debug_aranges
                0x00001a38       0x20 c:/program files (x86)/microchip/xc32/v2.15/bin/bin/../../lib/gcc/pic32mx/4.8.3\libgcc.a(_umoddi3.o)
 .debug_aranges
                0x00001a58       0x20 c:/program files (x86)/microchip/xc32/v2.15/bin/bin/../../lib/gcc/pic32mx/4.8.3\libgcc.a(floatunsidf.o)
 .debug_aranges
                0x00001a78       0x40 c:/program files (x86)/microchip/xc32/v2.15/bin/bin/../../lib/gcc/pic32mx/4.8.3/../../../../pic32mx/lib\libpic32.a(sbrk.o)
 .debug_aranges
                0x00001ab8       0x20 c:/program files (x86)/microchip/xc32/v2.15/bin/bin/../../lib/gcc/pic32mx/4.8.3/../../../../pic32mx/lib\libpic32.a(read.o)
 .debug_aranges
                0x00001ad8       0x20 c:/program files (x86)/microchip/xc32/v2.15/bin/bin/../../lib/gcc/pic32mx/4.8.3/../../../../pic32mx/lib\libpic32.a(write.o)
 .debug_aranges
                0x00001af8       0x20 c:/program files (x86)/microchip/xc32/v2.15/bin/bin/../../lib/gcc/pic32mx/4.8.3/../../../../pic32mx/lib\libpic32.a(_mon_putc.o)

.debug_pubnames
 *(.debug_pubnames)

.debug_info     0x00000000    0x48587
 *(.debug_info .gnu.linkonce.wi.*)
 .debug_info    0x00000000       0xe8 c:/program files (x86)/microchip/xc32/v2.15/bin/bin/../../lib/gcc/pic32mx/4.8.3/../../../../pic32mx/lib\software-debug-break.o
 .debug_info    0x000000e8     0x4418 build/default/debug/_ext/1361460060/drv_adc_static.o
 .debug_info    0x00004500     0x4ab4 build/default/debug/_ext/1407244131/drv_tmr_static.o
 .debug_info    0x00008fb4     0x1acd build/default/debug/_ext/1407244131/drv_tmr_mapping.o
 .debug_info    0x0000aa81     0x24df build/default/debug/_ext/327000265/drv_usart_mapping.o
 .debug_info    0x0000cf60     0x75f7 build/default/debug/_ext/327000265/drv_usart_static.o
 .debug_info    0x00014557     0x2b0b build/default/debug/_ext/327000265/drv_usart_static_byte_model.o
 .debug_info    0x00017062     0x14d1 build/default/debug/_ext/639803181/sys_clk_pic32mx.o
 .debug_info    0x00018533     0x162e build/default/debug/_ext/340578644/sys_devcon.o
 .debug_info    0x00019b61     0x1770 build/default/debug/_ext/340578644/sys_devcon_pic32mx.o
 .debug_info    0x0001b2d1     0x4115 build/default/debug/_ext/822048611/sys_ports_static.o
 .debug_info    0x0001f3e6     0x25b1 build/default/debug/_ext/1688732426/system_init.o
 .debug_info    0x00021997     0x4452 build/default/debug/_ext/1688732426/system_interrupt.o
 .debug_info    0x00025de9     0x1324 build/default/debug/_ext/1688732426/system_exceptions.o
 .debug_info    0x0002710d      0xc9d build/default/debug/_ext/1688732426/system_tasks.o
 .debug_info    0x00027daa       0x98 build/default/debug/_ext/1688732426/system_interrupt_a.o
 .debug_info    0x00027e42      0x252 build/default/debug/_ext/1688732426/rtos_hooks.o
 .debug_info    0x00028094     0x1e90 build/default/debug/_ext/1360937237/app.o
 .debug_info    0x00029f24      0x1a8 build/default/debug/_ext/1360937237/main.o
 .debug_info    0x0002a0cc     0x15e7 build/default/debug/_ext/45544379/debug.o
 .debug_info    0x0002b6b3     0x1659 build/default/debug/_ext/1360937237/Distance.o
 .debug_info    0x0002cd0c     0x18ca build/default/debug/_ext/1360937237/IR.o
 .debug_info    0x0002e5d6     0x1cce build/default/debug/_ext/1360937237/TxThread.o
 .debug_info    0x000302a4     0x24df build/default/debug/_ext/45544379/JSON.o
 .debug_info    0x00032783     0x4111 build/default/debug/_ext/45544379/cJSON.o
 .debug_info    0x00036894      0x4f6 build/default/debug/_ext/45544379/md5.o
 .debug_info    0x00036d8a     0x1e98 build/default/debug/_ext/45544379/sensor_queue.o
 .debug_info    0x00038c22      0xa35 build/default/debug/_ext/24337685/osal_freertos.o
 .debug_info    0x00039657     0x142e build/default/debug/_ext/122796885/sys_int_pic32.o
 .debug_info    0x0003aa85      0x639 build/default/debug/_ext/1856876499/heap_1.o
 .debug_info    0x0003b0be     0x11a1 build/default/debug/_ext/12131622/port.o
 .debug_info    0x0003c25f       0xb9 build/default/debug/_ext/12131622/port_asm.o
 .debug_info    0x0003c318      0x16b build/default/debug/_ext/1128951024/croutine.o
 .debug_info    0x0003c483      0x473 build/default/debug/_ext/1128951024/list.o
 .debug_info    0x0003c8f6     0x1eee build/default/debug/_ext/1128951024/queue.o
 .debug_info    0x0003e7e4     0x2b73 build/default/debug/_ext/1128951024/tasks.o
 .debug_info    0x00041357     0x15cb build/default/debug/_ext/1128951024/timers.o
 .debug_info    0x00042922      0xd53 build/default/debug/_ext/1128951024/event_groups.o
 .debug_info    0x00043675     0x1707 build/default/debug/_ext/1128951024/stream_buffer.o
 .debug_info    0x00044d7c       0xd7 C:\Users\MOQIZH~1\AppData\Local\Temp\ccYY4veD.o
 .debug_info    0x00044e53      0x133 c:/program files (x86)/microchip/xc32/v2.15/bin/bin/../../lib/gcc/pic32mx/4.8.3\libgcc.a(floatunsisf.o)
 .debug_info    0x00044f86       0xf9 c:/program files (x86)/microchip/xc32/v2.15/bin/bin/../../lib/gcc/pic32mx/4.8.3/../../../../pic32mx/lib\libpic32.a(default-bootstrap-exception-handler.o)
 .debug_info    0x0004507f       0xd2 c:/program files (x86)/microchip/xc32/v2.15/bin/bin/../../lib/gcc/pic32mx/4.8.3/../../../../pic32mx/lib\libpic32.a(default-on-reset.o)
 .debug_info    0x00045151       0xda c:/program files (x86)/microchip/xc32/v2.15/bin/bin/../../lib/gcc/pic32mx/4.8.3/../../../../pic32mx/lib\libpic32.a(default-on-bootstrap.o)
 .debug_info    0x0004522b       0xec c:/program files (x86)/microchip/xc32/v2.15/bin/bin/../../lib/gcc/pic32mx/4.8.3/../../../../pic32mx/lib\libpic32.a(defaultinterrupt.o)
 .debug_info    0x00045317      0x23e c:/program files (x86)/microchip/xc32/v2.15/bin/bin/../../lib/gcc/pic32mx/4.8.3/../../../../pic32mx/lib\libc.a(ctypef.o)
 .debug_info    0x00045555       0xfb c:/program files (x86)/microchip/xc32/v2.15/bin/bin/../../lib/gcc/pic32mx/4.8.3/../../../../pic32mx/lib\libc.a(malloc.o)
 .debug_info    0x00045650       0xca c:/program files (x86)/microchip/xc32/v2.15/bin/bin/../../lib/gcc/pic32mx/4.8.3/../../../../pic32mx/lib\libc.a(strcat.o)
 .debug_info    0x0004571a       0xcc c:/program files (x86)/microchip/xc32/v2.15/bin/bin/../../lib/gcc/pic32mx/4.8.3/../../../../pic32mx/lib\libc.a(strncmp.o)
 .debug_info    0x000457e6       0xfa c:/program files (x86)/microchip/xc32/v2.15/bin/bin/../../lib/gcc/pic32mx/4.8.3/../../../../pic32mx/lib\libc.a(strtod.o)
 .debug_info    0x000458e0       0xd8 c:/program files (x86)/microchip/xc32/v2.15/bin/bin/../../lib/gcc/pic32mx/4.8.3/../../../../pic32mx/lib\libc.a(sprintf_cdgGnopuxX.eo)
 .debug_info    0x000459b8       0xce c:/program files (x86)/microchip/xc32/v2.15/bin/bin/../../lib/gcc/pic32mx/4.8.3/../../../../pic32mx/lib\libc.a(sscanf_gG.eo)
 .debug_info    0x00045a86      0x110 c:/program files (x86)/microchip/xc32/v2.15/bin/bin/../../lib/gcc/pic32mx/4.8.3/../../../../pic32mx/lib\libc.a(doprnt_cdgGnopuxX.eo)
 .debug_info    0x00045b96       0xf8 c:/program files (x86)/microchip/xc32/v2.15/bin/bin/../../lib/gcc/pic32mx/4.8.3/../../../../pic32mx/lib\libc.a(doscan_gG.eo)
 .debug_info    0x00045c8e       0xc8 c:/program files (x86)/microchip/xc32/v2.15/bin/bin/../../lib/gcc/pic32mx/4.8.3/../../../../pic32mx/lib\libc.a(fgetc.o)
 .debug_info    0x00045d56       0xc8 c:/program files (x86)/microchip/xc32/v2.15/bin/bin/../../lib/gcc/pic32mx/4.8.3/../../../../pic32mx/lib\libc.a(_fputc_simple.o)
 .debug_info    0x00045e1e       0xc6 c:/program files (x86)/microchip/xc32/v2.15/bin/bin/../../lib/gcc/pic32mx/4.8.3/../../../../pic32mx/lib\libc.a(atoi.o)
 .debug_info    0x00045ee4       0xf9 c:/program files (x86)/microchip/xc32/v2.15/bin/bin/../../lib/gcc/pic32mx/4.8.3/../../../../pic32mx/lib\libc.a(strtof.o)
 .debug_info    0x00045fdd       0xca c:/program files (x86)/microchip/xc32/v2.15/bin/bin/../../lib/gcc/pic32mx/4.8.3/../../../../pic32mx/lib\libc.a(ungetc.o)
 .debug_info    0x000460a7       0xcb c:/program files (x86)/microchip/xc32/v2.15/bin/bin/../../lib/gcc/pic32mx/4.8.3/../../../../pic32mx/lib\libc.a(filbuf.o)
 .debug_info    0x00046172       0xcb c:/program files (x86)/microchip/xc32/v2.15/bin/bin/../../lib/gcc/pic32mx/4.8.3/../../../../pic32mx/lib\libc.a(_flsbuf_simple.o)
 .debug_info    0x0004623d       0xca c:/program files (x86)/microchip/xc32/v2.15/bin/bin/../../lib/gcc/pic32mx/4.8.3/../../../../pic32mx/lib\libc.a(fflush.o)
 .debug_info    0x00046307       0xdd c:/program files (x86)/microchip/xc32/v2.15/bin/bin/../../lib/gcc/pic32mx/4.8.3/../../../../pic32mx/lib\libm.a(__strtod.o)
 .debug_info    0x000463e4       0xdd c:/program files (x86)/microchip/xc32/v2.15/bin/bin/../../lib/gcc/pic32mx/4.8.3/../../../../pic32mx/lib\libm.a(__strtof.o)
 .debug_info    0x000464c1       0xd3 c:/program files (x86)/microchip/xc32/v2.15/bin/bin/../../lib/gcc/pic32mx/4.8.3/../../../../pic32mx/lib\libe.a(_fixunsdfdi.o)
 .debug_info    0x00046594       0xbf c:/program files (x86)/microchip/xc32/v2.15/bin/bin/../../lib/gcc/pic32mx/4.8.3/../../../../pic32mx/lib\libe.a(_orderdf2.o)
 .debug_info    0x00046653       0xde c:/program files (x86)/microchip/xc32/v2.15/bin/bin/../../lib/gcc/pic32mx/4.8.3/../../../../pic32mx/lib\libe.a(_ldexp.o)
 .debug_info    0x00046731       0xde c:/program files (x86)/microchip/xc32/v2.15/bin/bin/../../lib/gcc/pic32mx/4.8.3/../../../../pic32mx/lib\libe.a(_ldexpf.o)
 .debug_info    0x0004680f       0xbe c:/program files (x86)/microchip/xc32/v2.15/bin/bin/../../lib/gcc/pic32mx/4.8.3/../../../../pic32mx/lib\libe.a(_fixdfdi.o)
 .debug_info    0x000468cd      0x331 c:/program files (x86)/microchip/xc32/v2.15/bin/bin/../../lib/gcc/pic32mx/4.8.3\libgcc.a(_lshrdi3.o)
 .debug_info    0x00046bfe      0x334 c:/program files (x86)/microchip/xc32/v2.15/bin/bin/../../lib/gcc/pic32mx/4.8.3\libgcc.a(_ashldi3.o)
 .debug_info    0x00046f32      0x26a c:/program files (x86)/microchip/xc32/v2.15/bin/bin/../../lib/gcc/pic32mx/4.8.3\libgcc.a(_floatundidf.o)
 .debug_info    0x0004719c      0x770 c:/program files (x86)/microchip/xc32/v2.15/bin/bin/../../lib/gcc/pic32mx/4.8.3\libgcc.a(_udivdi3.o)
 .debug_info    0x0004790c      0x7ad c:/program files (x86)/microchip/xc32/v2.15/bin/bin/../../lib/gcc/pic32mx/4.8.3\libgcc.a(_umoddi3.o)
 .debug_info    0x000480b9      0x146 c:/program files (x86)/microchip/xc32/v2.15/bin/bin/../../lib/gcc/pic32mx/4.8.3\libgcc.a(floatunsidf.o)
 .debug_info    0x000481ff      0x136 c:/program files (x86)/microchip/xc32/v2.15/bin/bin/../../lib/gcc/pic32mx/4.8.3/../../../../pic32mx/lib\libpic32.a(sbrk.o)
 .debug_info    0x00048335       0xc2 c:/program files (x86)/microchip/xc32/v2.15/bin/bin/../../lib/gcc/pic32mx/4.8.3/../../../../pic32mx/lib\libpic32.a(read.o)
 .debug_info    0x000483f7       0xc4 c:/program files (x86)/microchip/xc32/v2.15/bin/bin/../../lib/gcc/pic32mx/4.8.3/../../../../pic32mx/lib\libpic32.a(write.o)
 .debug_info    0x000484bb       0xcc c:/program files (x86)/microchip/xc32/v2.15/bin/bin/../../lib/gcc/pic32mx/4.8.3/../../../../pic32mx/lib\libpic32.a(_mon_putc.o)

.debug_abbrev   0x00000000     0x64ce
 *(.debug_abbrev)
 .debug_abbrev  0x00000000       0x28 c:/program files (x86)/microchip/xc32/v2.15/bin/bin/../../lib/gcc/pic32mx/4.8.3/../../../../pic32mx/lib\software-debug-break.o
 .debug_abbrev  0x00000028      0x28e build/default/debug/_ext/1361460060/drv_adc_static.o
 .debug_abbrev  0x000002b6      0x429 build/default/debug/_ext/1407244131/drv_tmr_static.o
 .debug_abbrev  0x000006df      0x358 build/default/debug/_ext/1407244131/drv_tmr_mapping.o
 .debug_abbrev  0x00000a37      0x238 build/default/debug/_ext/327000265/drv_usart_mapping.o
 .debug_abbrev  0x00000c6f      0x4bd build/default/debug/_ext/327000265/drv_usart_static.o
 .debug_abbrev  0x0000112c      0x3c1 build/default/debug/_ext/327000265/drv_usart_static_byte_model.o
 .debug_abbrev  0x000014ed      0x26b build/default/debug/_ext/639803181/sys_clk_pic32mx.o
 .debug_abbrev  0x00001758      0x2af build/default/debug/_ext/340578644/sys_devcon.o
 .debug_abbrev  0x00001a07      0x20f build/default/debug/_ext/340578644/sys_devcon_pic32mx.o
 .debug_abbrev  0x00001c16      0x270 build/default/debug/_ext/822048611/sys_ports_static.o
 .debug_abbrev  0x00001e86      0x2ac build/default/debug/_ext/1688732426/system_init.o
 .debug_abbrev  0x00002132      0x3d9 build/default/debug/_ext/1688732426/system_interrupt.o
 .debug_abbrev  0x0000250b       0xfc build/default/debug/_ext/1688732426/system_exceptions.o
 .debug_abbrev  0x00002607      0x16f build/default/debug/_ext/1688732426/system_tasks.o
 .debug_abbrev  0x00002776       0x12 build/default/debug/_ext/1688732426/system_interrupt_a.o
 .debug_abbrev  0x00002788       0x97 build/default/debug/_ext/1688732426/rtos_hooks.o
 .debug_abbrev  0x0000281f      0x2c2 build/default/debug/_ext/1360937237/app.o
 .debug_abbrev  0x00002ae1       0x93 build/default/debug/_ext/1360937237/main.o
 .debug_abbrev  0x00002b74      0x1f9 build/default/debug/_ext/45544379/debug.o
 .debug_abbrev  0x00002d6d      0x1dc build/default/debug/_ext/1360937237/Distance.o
 .debug_abbrev  0x00002f49      0x241 build/default/debug/_ext/1360937237/IR.o
 .debug_abbrev  0x0000318a      0x1e2 build/default/debug/_ext/1360937237/TxThread.o
 .debug_abbrev  0x0000336c      0x365 build/default/debug/_ext/45544379/JSON.o
 .debug_abbrev  0x000036d1      0x51f build/default/debug/_ext/45544379/cJSON.o
 .debug_abbrev  0x00003bf0      0x196 build/default/debug/_ext/45544379/md5.o
 .debug_abbrev  0x00003d86      0x1fd build/default/debug/_ext/45544379/sensor_queue.o
 .debug_abbrev  0x00003f83      0x1fe build/default/debug/_ext/24337685/osal_freertos.o
 .debug_abbrev  0x00004181      0x251 build/default/debug/_ext/122796885/sys_int_pic32.o
 .debug_abbrev  0x000043d2      0x1f2 build/default/debug/_ext/1856876499/heap_1.o
 .debug_abbrev  0x000045c4      0x2cf build/default/debug/_ext/12131622/port.o
 .debug_abbrev  0x00004893       0x14 build/default/debug/_ext/12131622/port_asm.o
 .debug_abbrev  0x000048a7       0x1b build/default/debug/_ext/1128951024/croutine.o
 .debug_abbrev  0x000048c2       0xf8 build/default/debug/_ext/1128951024/list.o
 .debug_abbrev  0x000049ba      0x366 build/default/debug/_ext/1128951024/queue.o
 .debug_abbrev  0x00004d20      0x32a build/default/debug/_ext/1128951024/tasks.o
 .debug_abbrev  0x0000504a      0x38f build/default/debug/_ext/1128951024/timers.o
 .debug_abbrev  0x000053d9      0x27d build/default/debug/_ext/1128951024/event_groups.o
 .debug_abbrev  0x00005656      0x313 build/default/debug/_ext/1128951024/stream_buffer.o
 .debug_abbrev  0x00005969       0x12 C:\Users\MOQIZH~1\AppData\Local\Temp\ccYY4veD.o
 .debug_abbrev  0x0000597b       0x62 c:/program files (x86)/microchip/xc32/v2.15/bin/bin/../../lib/gcc/pic32mx/4.8.3\libgcc.a(floatunsisf.o)
 .debug_abbrev  0x000059dd       0x28 c:/program files (x86)/microchip/xc32/v2.15/bin/bin/../../lib/gcc/pic32mx/4.8.3/../../../../pic32mx/lib\libpic32.a(default-bootstrap-exception-handler.o)
 .debug_abbrev  0x00005a05       0x28 c:/program files (x86)/microchip/xc32/v2.15/bin/bin/../../lib/gcc/pic32mx/4.8.3/../../../../pic32mx/lib\libpic32.a(default-on-reset.o)
 .debug_abbrev  0x00005a2d       0x28 c:/program files (x86)/microchip/xc32/v2.15/bin/bin/../../lib/gcc/pic32mx/4.8.3/../../../../pic32mx/lib\libpic32.a(default-on-bootstrap.o)
 .debug_abbrev  0x00005a55       0x28 c:/program files (x86)/microchip/xc32/v2.15/bin/bin/../../lib/gcc/pic32mx/4.8.3/../../../../pic32mx/lib\libpic32.a(defaultinterrupt.o)
 .debug_abbrev  0x00005a7d       0x28 c:/program files (x86)/microchip/xc32/v2.15/bin/bin/../../lib/gcc/pic32mx/4.8.3/../../../../pic32mx/lib\libc.a(ctypef.o)
 .debug_abbrev  0x00005aa5       0x47 c:/program files (x86)/microchip/xc32/v2.15/bin/bin/../../lib/gcc/pic32mx/4.8.3/../../../../pic32mx/lib\libc.a(malloc.o)
 .debug_abbrev  0x00005aec       0x28 c:/program files (x86)/microchip/xc32/v2.15/bin/bin/../../lib/gcc/pic32mx/4.8.3/../../../../pic32mx/lib\libc.a(strcat.o)
 .debug_abbrev  0x00005b14       0x28 c:/program files (x86)/microchip/xc32/v2.15/bin/bin/../../lib/gcc/pic32mx/4.8.3/../../../../pic32mx/lib\libc.a(strncmp.o)
 .debug_abbrev  0x00005b3c       0x4f c:/program files (x86)/microchip/xc32/v2.15/bin/bin/../../lib/gcc/pic32mx/4.8.3/../../../../pic32mx/lib\libc.a(strtod.o)
 .debug_abbrev  0x00005b8b       0x28 c:/program files (x86)/microchip/xc32/v2.15/bin/bin/../../lib/gcc/pic32mx/4.8.3/../../../../pic32mx/lib\libc.a(sprintf_cdgGnopuxX.eo)
 .debug_abbrev  0x00005bb3       0x28 c:/program files (x86)/microchip/xc32/v2.15/bin/bin/../../lib/gcc/pic32mx/4.8.3/../../../../pic32mx/lib\libc.a(sscanf_gG.eo)
 .debug_abbrev  0x00005bdb       0x45 c:/program files (x86)/microchip/xc32/v2.15/bin/bin/../../lib/gcc/pic32mx/4.8.3/../../../../pic32mx/lib\libc.a(doprnt_cdgGnopuxX.eo)
 .debug_abbrev  0x00005c20       0x3c c:/program files (x86)/microchip/xc32/v2.15/bin/bin/../../lib/gcc/pic32mx/4.8.3/../../../../pic32mx/lib\libc.a(doscan_gG.eo)
 .debug_abbrev  0x00005c5c       0x28 c:/program files (x86)/microchip/xc32/v2.15/bin/bin/../../lib/gcc/pic32mx/4.8.3/../../../../pic32mx/lib\libc.a(fgetc.o)
 .debug_abbrev  0x00005c84       0x28 c:/program files (x86)/microchip/xc32/v2.15/bin/bin/../../lib/gcc/pic32mx/4.8.3/../../../../pic32mx/lib\libc.a(_fputc_simple.o)
 .debug_abbrev  0x00005cac       0x28 c:/program files (x86)/microchip/xc32/v2.15/bin/bin/../../lib/gcc/pic32mx/4.8.3/../../../../pic32mx/lib\libc.a(atoi.o)
 .debug_abbrev  0x00005cd4       0x4f c:/program files (x86)/microchip/xc32/v2.15/bin/bin/../../lib/gcc/pic32mx/4.8.3/../../../../pic32mx/lib\libc.a(strtof.o)
 .debug_abbrev  0x00005d23       0x28 c:/program files (x86)/microchip/xc32/v2.15/bin/bin/../../lib/gcc/pic32mx/4.8.3/../../../../pic32mx/lib\libc.a(ungetc.o)
 .debug_abbrev  0x00005d4b       0x28 c:/program files (x86)/microchip/xc32/v2.15/bin/bin/../../lib/gcc/pic32mx/4.8.3/../../../../pic32mx/lib\libc.a(filbuf.o)
 .debug_abbrev  0x00005d73       0x28 c:/program files (x86)/microchip/xc32/v2.15/bin/bin/../../lib/gcc/pic32mx/4.8.3/../../../../pic32mx/lib\libc.a(_flsbuf_simple.o)
 .debug_abbrev  0x00005d9b       0x28 c:/program files (x86)/microchip/xc32/v2.15/bin/bin/../../lib/gcc/pic32mx/4.8.3/../../../../pic32mx/lib\libc.a(fflush.o)
 .debug_abbrev  0x00005dc3       0x35 c:/program files (x86)/microchip/xc32/v2.15/bin/bin/../../lib/gcc/pic32mx/4.8.3/../../../../pic32mx/lib\libm.a(__strtod.o)
 .debug_abbrev  0x00005df8       0x35 c:/program files (x86)/microchip/xc32/v2.15/bin/bin/../../lib/gcc/pic32mx/4.8.3/../../../../pic32mx/lib\libm.a(__strtof.o)
 .debug_abbrev  0x00005e2d       0x37 c:/program files (x86)/microchip/xc32/v2.15/bin/bin/../../lib/gcc/pic32mx/4.8.3/../../../../pic32mx/lib\libe.a(_fixunsdfdi.o)
 .debug_abbrev  0x00005e64       0x28 c:/program files (x86)/microchip/xc32/v2.15/bin/bin/../../lib/gcc/pic32mx/4.8.3/../../../../pic32mx/lib\libe.a(_orderdf2.o)
 .debug_abbrev  0x00005e8c       0x35 c:/program files (x86)/microchip/xc32/v2.15/bin/bin/../../lib/gcc/pic32mx/4.8.3/../../../../pic32mx/lib\libe.a(_ldexp.o)
 .debug_abbrev  0x00005ec1       0x35 c:/program files (x86)/microchip/xc32/v2.15/bin/bin/../../lib/gcc/pic32mx/4.8.3/../../../../pic32mx/lib\libe.a(_ldexpf.o)
 .debug_abbrev  0x00005ef6       0x28 c:/program files (x86)/microchip/xc32/v2.15/bin/bin/../../lib/gcc/pic32mx/4.8.3/../../../../pic32mx/lib\libe.a(_fixdfdi.o)
 .debug_abbrev  0x00005f1e       0xd7 c:/program files (x86)/microchip/xc32/v2.15/bin/bin/../../lib/gcc/pic32mx/4.8.3\libgcc.a(_lshrdi3.o)
 .debug_abbrev  0x00005ff5       0xc8 c:/program files (x86)/microchip/xc32/v2.15/bin/bin/../../lib/gcc/pic32mx/4.8.3\libgcc.a(_ashldi3.o)
 .debug_abbrev  0x000060bd       0x64 c:/program files (x86)/microchip/xc32/v2.15/bin/bin/../../lib/gcc/pic32mx/4.8.3\libgcc.a(_floatundidf.o)
 .debug_abbrev  0x00006121      0x138 c:/program files (x86)/microchip/xc32/v2.15/bin/bin/../../lib/gcc/pic32mx/4.8.3\libgcc.a(_udivdi3.o)
 .debug_abbrev  0x00006259      0x147 c:/program files (x86)/microchip/xc32/v2.15/bin/bin/../../lib/gcc/pic32mx/4.8.3\libgcc.a(_umoddi3.o)
 .debug_abbrev  0x000063a0       0x62 c:/program files (x86)/microchip/xc32/v2.15/bin/bin/../../lib/gcc/pic32mx/4.8.3\libgcc.a(floatunsidf.o)
 .debug_abbrev  0x00006402       0x54 c:/program files (x86)/microchip/xc32/v2.15/bin/bin/../../lib/gcc/pic32mx/4.8.3/../../../../pic32mx/lib\libpic32.a(sbrk.o)
 .debug_abbrev  0x00006456       0x28 c:/program files (x86)/microchip/xc32/v2.15/bin/bin/../../lib/gcc/pic32mx/4.8.3/../../../../pic32mx/lib\libpic32.a(read.o)
 .debug_abbrev  0x0000647e       0x28 c:/program files (x86)/microchip/xc32/v2.15/bin/bin/../../lib/gcc/pic32mx/4.8.3/../../../../pic32mx/lib\libpic32.a(write.o)
 .debug_abbrev  0x000064a6       0x28 c:/program files (x86)/microchip/xc32/v2.15/bin/bin/../../lib/gcc/pic32mx/4.8.3/../../../../pic32mx/lib\libpic32.a(_mon_putc.o)

.debug_line     0x00000000     0xc5af
 *(.debug_line)
 .debug_line    0x00000000       0x9e c:/program files (x86)/microchip/xc32/v2.15/bin/bin/../../lib/gcc/pic32mx/4.8.3/../../../../pic32mx/lib\software-debug-break.o
 .debug_line    0x0000009e      0x764 build/default/debug/_ext/1361460060/drv_adc_static.o
 .debug_line    0x00000802      0x8a4 build/default/debug/_ext/1407244131/drv_tmr_static.o
 .debug_line    0x000010a6      0x544 build/default/debug/_ext/1407244131/drv_tmr_mapping.o
 .debug_line    0x000015ea      0x502 build/default/debug/_ext/327000265/drv_usart_mapping.o
 .debug_line    0x00001aec      0xfbb build/default/debug/_ext/327000265/drv_usart_static.o
 .debug_line    0x00002aa7      0x6a0 build/default/debug/_ext/327000265/drv_usart_static_byte_model.o
 .debug_line    0x00003147      0x407 build/default/debug/_ext/639803181/sys_clk_pic32mx.o
 .debug_line    0x0000354e      0x632 build/default/debug/_ext/340578644/sys_devcon.o
 .debug_line    0x00003b80      0x483 build/default/debug/_ext/340578644/sys_devcon_pic32mx.o
 .debug_line    0x00004003      0x761 build/default/debug/_ext/822048611/sys_ports_static.o
 .debug_line    0x00004764      0x6b3 build/default/debug/_ext/1688732426/system_init.o
 .debug_line    0x00004e17      0x92b build/default/debug/_ext/1688732426/system_interrupt.o
 .debug_line    0x00005742      0x22b build/default/debug/_ext/1688732426/system_exceptions.o
 .debug_line    0x0000596d      0x2c1 build/default/debug/_ext/1688732426/system_tasks.o
 .debug_line    0x00005c2e      0x177 build/default/debug/_ext/1688732426/system_interrupt_a.o
 .debug_line    0x00005da5      0x13f build/default/debug/_ext/1688732426/rtos_hooks.o
 .debug_line    0x00005ee4      0x3ba build/default/debug/_ext/1360937237/app.o
 .debug_line    0x0000629e       0xb4 build/default/debug/_ext/1360937237/main.o
 .debug_line    0x00006352      0x22b build/default/debug/_ext/45544379/debug.o
 .debug_line    0x0000657d      0x2be build/default/debug/_ext/1360937237/Distance.o
 .debug_line    0x0000683b      0x3b4 build/default/debug/_ext/1360937237/IR.o
 .debug_line    0x00006bef      0x35f build/default/debug/_ext/1360937237/TxThread.o
 .debug_line    0x00006f4e      0x4ab build/default/debug/_ext/45544379/JSON.o
 .debug_line    0x000073f9      0xd68 build/default/debug/_ext/45544379/cJSON.o
 .debug_line    0x00008161      0x1ae build/default/debug/_ext/45544379/md5.o
 .debug_line    0x0000830f      0x42d build/default/debug/_ext/45544379/sensor_queue.o
 .debug_line    0x0000873c      0x2e2 build/default/debug/_ext/24337685/osal_freertos.o
 .debug_line    0x00008a1e      0x2d1 build/default/debug/_ext/122796885/sys_int_pic32.o
 .debug_line    0x00008cef      0x282 build/default/debug/_ext/1856876499/heap_1.o
 .debug_line    0x00008f71      0x23a build/default/debug/_ext/12131622/port.o
 .debug_line    0x000091ab      0x101 build/default/debug/_ext/12131622/port_asm.o
 .debug_line    0x000092ac       0x1d build/default/debug/_ext/1128951024/croutine.o
 .debug_line    0x000092c9      0x1db build/default/debug/_ext/1128951024/list.o
 .debug_line    0x000094a4      0x546 build/default/debug/_ext/1128951024/queue.o
 .debug_line    0x000099ea      0x887 build/default/debug/_ext/1128951024/tasks.o
 .debug_line    0x0000a271      0x3ca build/default/debug/_ext/1128951024/timers.o
 .debug_line    0x0000a63b      0x323 build/default/debug/_ext/1128951024/event_groups.o
 .debug_line    0x0000a95e      0x416 build/default/debug/_ext/1128951024/stream_buffer.o
 .debug_line    0x0000ad74      0x163 C:\Users\MOQIZH~1\AppData\Local\Temp\ccYY4veD.o
 .debug_line    0x0000aed7       0x9e c:/program files (x86)/microchip/xc32/v2.15/bin/bin/../../lib/gcc/pic32mx/4.8.3\libgcc.a(floatunsisf.o)
 .debug_line    0x0000af75       0xab c:/program files (x86)/microchip/xc32/v2.15/bin/bin/../../lib/gcc/pic32mx/4.8.3/../../../../pic32mx/lib\libpic32.a(default-bootstrap-exception-handler.o)
 .debug_line    0x0000b020       0x98 c:/program files (x86)/microchip/xc32/v2.15/bin/bin/../../lib/gcc/pic32mx/4.8.3/../../../../pic32mx/lib\libpic32.a(default-on-reset.o)
 .debug_line    0x0000b0b8       0x9c c:/program files (x86)/microchip/xc32/v2.15/bin/bin/../../lib/gcc/pic32mx/4.8.3/../../../../pic32mx/lib\libpic32.a(default-on-bootstrap.o)
 .debug_line    0x0000b154       0xaa c:/program files (x86)/microchip/xc32/v2.15/bin/bin/../../lib/gcc/pic32mx/4.8.3/../../../../pic32mx/lib\libpic32.a(defaultinterrupt.o)
 .debug_line    0x0000b1fe       0x84 c:/program files (x86)/microchip/xc32/v2.15/bin/bin/../../lib/gcc/pic32mx/4.8.3/../../../../pic32mx/lib\libc.a(ctypef.o)
 .debug_line    0x0000b282       0x84 c:/program files (x86)/microchip/xc32/v2.15/bin/bin/../../lib/gcc/pic32mx/4.8.3/../../../../pic32mx/lib\libc.a(malloc.o)
 .debug_line    0x0000b306       0x84 c:/program files (x86)/microchip/xc32/v2.15/bin/bin/../../lib/gcc/pic32mx/4.8.3/../../../../pic32mx/lib\libc.a(strcat.o)
 .debug_line    0x0000b38a       0x85 c:/program files (x86)/microchip/xc32/v2.15/bin/bin/../../lib/gcc/pic32mx/4.8.3/../../../../pic32mx/lib\libc.a(strncmp.o)
 .debug_line    0x0000b40f       0x84 c:/program files (x86)/microchip/xc32/v2.15/bin/bin/../../lib/gcc/pic32mx/4.8.3/../../../../pic32mx/lib\libc.a(strtod.o)
 .debug_line    0x0000b493       0x85 c:/program files (x86)/microchip/xc32/v2.15/bin/bin/../../lib/gcc/pic32mx/4.8.3/../../../../pic32mx/lib\libc.a(sprintf_cdgGnopuxX.eo)
 .debug_line    0x0000b518       0x84 c:/program files (x86)/microchip/xc32/v2.15/bin/bin/../../lib/gcc/pic32mx/4.8.3/../../../../pic32mx/lib\libc.a(sscanf_gG.eo)
 .debug_line    0x0000b59c        0x0 c:/program files (x86)/microchip/xc32/v2.15/bin/bin/../../lib/gcc/pic32mx/4.8.3/../../../../pic32mx/lib\libc.a(ctype.o)
 .debug_line    0x0000b59c       0x84 c:/program files (x86)/microchip/xc32/v2.15/bin/bin/../../lib/gcc/pic32mx/4.8.3/../../../../pic32mx/lib\libc.a(doprnt_cdgGnopuxX.eo)
 .debug_line    0x0000b620       0x84 c:/program files (x86)/microchip/xc32/v2.15/bin/bin/../../lib/gcc/pic32mx/4.8.3/../../../../pic32mx/lib\libc.a(doscan_gG.eo)
 .debug_line    0x0000b6a4       0x83 c:/program files (x86)/microchip/xc32/v2.15/bin/bin/../../lib/gcc/pic32mx/4.8.3/../../../../pic32mx/lib\libc.a(fgetc.o)
 .debug_line    0x0000b727       0x83 c:/program files (x86)/microchip/xc32/v2.15/bin/bin/../../lib/gcc/pic32mx/4.8.3/../../../../pic32mx/lib\libc.a(_fputc_simple.o)
 .debug_line    0x0000b7aa       0x82 c:/program files (x86)/microchip/xc32/v2.15/bin/bin/../../lib/gcc/pic32mx/4.8.3/../../../../pic32mx/lib\libc.a(atoi.o)
 .debug_line    0x0000b82c        0x0 c:/program files (x86)/microchip/xc32/v2.15/bin/bin/../../lib/gcc/pic32mx/4.8.3/../../../../pic32mx/lib\libc.a(ldpowers.o)
 .debug_line    0x0000b82c       0x84 c:/program files (x86)/microchip/xc32/v2.15/bin/bin/../../lib/gcc/pic32mx/4.8.3/../../../../pic32mx/lib\libc.a(strtof.o)
 .debug_line    0x0000b8b0       0x84 c:/program files (x86)/microchip/xc32/v2.15/bin/bin/../../lib/gcc/pic32mx/4.8.3/../../../../pic32mx/lib\libc.a(ungetc.o)
 .debug_line    0x0000b934        0x0 c:/program files (x86)/microchip/xc32/v2.15/bin/bin/../../lib/gcc/pic32mx/4.8.3/../../../../pic32mx/lib\libc.a(_iob.o)
 .debug_line    0x0000b934       0x84 c:/program files (x86)/microchip/xc32/v2.15/bin/bin/../../lib/gcc/pic32mx/4.8.3/../../../../pic32mx/lib\libc.a(filbuf.o)
 .debug_line    0x0000b9b8       0x84 c:/program files (x86)/microchip/xc32/v2.15/bin/bin/../../lib/gcc/pic32mx/4.8.3/../../../../pic32mx/lib\libc.a(_flsbuf_simple.o)
 .debug_line    0x0000ba3c       0x84 c:/program files (x86)/microchip/xc32/v2.15/bin/bin/../../lib/gcc/pic32mx/4.8.3/../../../../pic32mx/lib\libc.a(fflush.o)
 .debug_line    0x0000bac0       0x8d c:/program files (x86)/microchip/xc32/v2.15/bin/bin/../../lib/gcc/pic32mx/4.8.3/../../../../pic32mx/lib\libm.a(__strtod.o)
 .debug_line    0x0000bb4d       0x8d c:/program files (x86)/microchip/xc32/v2.15/bin/bin/../../lib/gcc/pic32mx/4.8.3/../../../../pic32mx/lib\libm.a(__strtof.o)
 .debug_line    0x0000bbda       0x87 c:/program files (x86)/microchip/xc32/v2.15/bin/bin/../../lib/gcc/pic32mx/4.8.3/../../../../pic32mx/lib\libe.a(_fixunsdfdi.o)
 .debug_line    0x0000bc61       0x86 c:/program files (x86)/microchip/xc32/v2.15/bin/bin/../../lib/gcc/pic32mx/4.8.3/../../../../pic32mx/lib\libe.a(_orderdf2.o)
 .debug_line    0x0000bce7       0xa7 c:/program files (x86)/microchip/xc32/v2.15/bin/bin/../../lib/gcc/pic32mx/4.8.3/../../../../pic32mx/lib\libe.a(_ldexp.o)
 .debug_line    0x0000bd8e       0xa7 c:/program files (x86)/microchip/xc32/v2.15/bin/bin/../../lib/gcc/pic32mx/4.8.3/../../../../pic32mx/lib\libe.a(_ldexpf.o)
 .debug_line    0x0000be35       0x86 c:/program files (x86)/microchip/xc32/v2.15/bin/bin/../../lib/gcc/pic32mx/4.8.3/../../../../pic32mx/lib\libe.a(_fixdfdi.o)
 .debug_line    0x0000bebb       0xaf c:/program files (x86)/microchip/xc32/v2.15/bin/bin/../../lib/gcc/pic32mx/4.8.3\libgcc.a(_lshrdi3.o)
 .debug_line    0x0000bf6a       0xaf c:/program files (x86)/microchip/xc32/v2.15/bin/bin/../../lib/gcc/pic32mx/4.8.3\libgcc.a(_ashldi3.o)
 .debug_line    0x0000c019       0xaf c:/program files (x86)/microchip/xc32/v2.15/bin/bin/../../lib/gcc/pic32mx/4.8.3\libgcc.a(_floatundidf.o)
 .debug_line    0x0000c0c8      0x101 c:/program files (x86)/microchip/xc32/v2.15/bin/bin/../../lib/gcc/pic32mx/4.8.3\libgcc.a(_udivdi3.o)
 .debug_line    0x0000c1c9      0x113 c:/program files (x86)/microchip/xc32/v2.15/bin/bin/../../lib/gcc/pic32mx/4.8.3\libgcc.a(_umoddi3.o)
 .debug_line    0x0000c2dc       0x9d c:/program files (x86)/microchip/xc32/v2.15/bin/bin/../../lib/gcc/pic32mx/4.8.3\libgcc.a(floatunsidf.o)
 .debug_line    0x0000c379       0x8c c:/program files (x86)/microchip/xc32/v2.15/bin/bin/../../lib/gcc/pic32mx/4.8.3/../../../../pic32mx/lib\libpic32.a(sbrk.o)
 .debug_line    0x0000c405       0x8c c:/program files (x86)/microchip/xc32/v2.15/bin/bin/../../lib/gcc/pic32mx/4.8.3/../../../../pic32mx/lib\libpic32.a(read.o)
 .debug_line    0x0000c491       0x8d c:/program files (x86)/microchip/xc32/v2.15/bin/bin/../../lib/gcc/pic32mx/4.8.3/../../../../pic32mx/lib\libpic32.a(write.o)
 .debug_line    0x0000c51e        0x0 c:/program files (x86)/microchip/xc32/v2.15/bin/bin/../../lib/gcc/pic32mx/4.8.3/../../../../pic32mx/lib\libpic32.a(xc32_uart.o)
 .debug_line    0x0000c51e        0x0 c:/program files (x86)/microchip/xc32/v2.15/bin/bin/../../lib/gcc/pic32mx/4.8.3/../../../../pic32mx/lib\libpic32.a(errno.o)
 .debug_line    0x0000c51e       0x91 c:/program files (x86)/microchip/xc32/v2.15/bin/bin/../../lib/gcc/pic32mx/4.8.3/../../../../pic32mx/lib\libpic32.a(_mon_putc.o)

.debug_frame    0x00000000     0x3a04
 *(.debug_frame)
 .debug_frame   0x00000000       0x20 c:/program files (x86)/microchip/xc32/v2.15/bin/bin/../../lib/gcc/pic32mx/4.8.3/../../../../pic32mx/lib\software-debug-break.o
 .debug_frame   0x00000020       0xd0 build/default/debug/_ext/1361460060/drv_adc_static.o
 .debug_frame   0x000000f0      0x200 build/default/debug/_ext/1407244131/drv_tmr_static.o
 .debug_frame   0x000002f0      0x218 build/default/debug/_ext/1407244131/drv_tmr_mapping.o
 .debug_frame   0x00000508      0x1d8 build/default/debug/_ext/327000265/drv_usart_mapping.o
 .debug_frame   0x000006e0      0x450 build/default/debug/_ext/327000265/drv_usart_static.o
 .debug_frame   0x00000b30      0x1d0 build/default/debug/_ext/327000265/drv_usart_static_byte_model.o
 .debug_frame   0x00000d00       0xa0 build/default/debug/_ext/639803181/sys_clk_pic32mx.o
 .debug_frame   0x00000da0       0xe8 build/default/debug/_ext/340578644/sys_devcon.o
 .debug_frame   0x00000e88       0x28 build/default/debug/_ext/340578644/sys_devcon_pic32mx.o
 .debug_frame   0x00000eb0      0x270 build/default/debug/_ext/822048611/sys_ports_static.o
 .debug_frame   0x00001120       0x28 build/default/debug/_ext/1688732426/system_init.o
 .debug_frame   0x00001148       0xb4 build/default/debug/_ext/1688732426/system_interrupt.o
 .debug_frame   0x000011fc       0x28 build/default/debug/_ext/1688732426/system_exceptions.o
 .debug_frame   0x00001224       0xa0 build/default/debug/_ext/1688732426/system_tasks.o
 .debug_frame   0x000012c4       0x40 build/default/debug/_ext/1688732426/rtos_hooks.o
 .debug_frame   0x00001304       0x60 build/default/debug/_ext/1360937237/app.o
 .debug_frame   0x00001364       0x28 build/default/debug/_ext/1360937237/main.o
 .debug_frame   0x0000138c       0x78 build/default/debug/_ext/45544379/debug.o
 .debug_frame   0x00001404       0x3c build/default/debug/_ext/1360937237/Distance.o
 .debug_frame   0x00001440       0x5c build/default/debug/_ext/1360937237/IR.o
 .debug_frame   0x0000149c       0x34 build/default/debug/_ext/1360937237/TxThread.o
 .debug_frame   0x000014d0      0x164 build/default/debug/_ext/45544379/JSON.o
 .debug_frame   0x00001634      0x950 build/default/debug/_ext/45544379/cJSON.o
 .debug_frame   0x00001f84       0x84 build/default/debug/_ext/45544379/md5.o
 .debug_frame   0x00002008      0x1d8 build/default/debug/_ext/45544379/sensor_queue.o
 .debug_frame   0x000021e0      0x150 build/default/debug/_ext/24337685/osal_freertos.o
 .debug_frame   0x00002330       0x90 build/default/debug/_ext/122796885/sys_int_pic32.o
 .debug_frame   0x000023c0       0x88 build/default/debug/_ext/1856876499/heap_1.o
 .debug_frame   0x00002448       0xc0 build/default/debug/_ext/12131622/port.o
 .debug_frame   0x00002508       0x60 build/default/debug/_ext/1128951024/list.o
 .debug_frame   0x00002568      0x28c build/default/debug/_ext/1128951024/queue.o
 .debug_frame   0x000027f4      0x53c build/default/debug/_ext/1128951024/tasks.o
 .debug_frame   0x00002d30      0x164 build/default/debug/_ext/1128951024/timers.o
 .debug_frame   0x00002e94      0x108 build/default/debug/_ext/1128951024/event_groups.o
 .debug_frame   0x00002f9c      0x218 build/default/debug/_ext/1128951024/stream_buffer.o
 .debug_frame   0x000031b4       0x28 c:/program files (x86)/microchip/xc32/v2.15/bin/bin/../../lib/gcc/pic32mx/4.8.3\libgcc.a(floatunsisf.o)
 .debug_frame   0x000031dc       0x2c c:/program files (x86)/microchip/xc32/v2.15/bin/bin/../../lib/gcc/pic32mx/4.8.3/../../../../pic32mx/lib\libpic32.a(default-bootstrap-exception-handler.o)
 .debug_frame   0x00003208       0x20 c:/program files (x86)/microchip/xc32/v2.15/bin/bin/../../lib/gcc/pic32mx/4.8.3/../../../../pic32mx/lib\libpic32.a(default-on-reset.o)
 .debug_frame   0x00003228       0x20 c:/program files (x86)/microchip/xc32/v2.15/bin/bin/../../lib/gcc/pic32mx/4.8.3/../../../../pic32mx/lib\libpic32.a(default-on-bootstrap.o)
 .debug_frame   0x00003248       0x20 c:/program files (x86)/microchip/xc32/v2.15/bin/bin/../../lib/gcc/pic32mx/4.8.3/../../../../pic32mx/lib\libpic32.a(defaultinterrupt.o)
 .debug_frame   0x00003268      0x120 c:/program files (x86)/microchip/xc32/v2.15/bin/bin/../../lib/gcc/pic32mx/4.8.3/../../../../pic32mx/lib\libc.a(ctypef.o)
 .debug_frame   0x00003388       0x68 c:/program files (x86)/microchip/xc32/v2.15/bin/bin/../../lib/gcc/pic32mx/4.8.3/../../../../pic32mx/lib\libc.a(malloc.o)
 .debug_frame   0x000033f0       0x20 c:/program files (x86)/microchip/xc32/v2.15/bin/bin/../../lib/gcc/pic32mx/4.8.3/../../../../pic32mx/lib\libc.a(strcat.o)
 .debug_frame   0x00003410       0x20 c:/program files (x86)/microchip/xc32/v2.15/bin/bin/../../lib/gcc/pic32mx/4.8.3/../../../../pic32mx/lib\libc.a(strncmp.o)
 .debug_frame   0x00003430       0x40 c:/program files (x86)/microchip/xc32/v2.15/bin/bin/../../lib/gcc/pic32mx/4.8.3/../../../../pic32mx/lib\libc.a(strtod.o)
 .debug_frame   0x00003470       0x28 c:/program files (x86)/microchip/xc32/v2.15/bin/bin/../../lib/gcc/pic32mx/4.8.3/../../../../pic32mx/lib\libc.a(sprintf_cdgGnopuxX.eo)
 .debug_frame   0x00003498       0x28 c:/program files (x86)/microchip/xc32/v2.15/bin/bin/../../lib/gcc/pic32mx/4.8.3/../../../../pic32mx/lib\libc.a(sscanf_gG.eo)
 .debug_frame   0x000034c0       0x74 c:/program files (x86)/microchip/xc32/v2.15/bin/bin/../../lib/gcc/pic32mx/4.8.3/../../../../pic32mx/lib\libc.a(doprnt_cdgGnopuxX.eo)
 .debug_frame   0x00003534       0x70 c:/program files (x86)/microchip/xc32/v2.15/bin/bin/../../lib/gcc/pic32mx/4.8.3/../../../../pic32mx/lib\libc.a(doscan_gG.eo)
 .debug_frame   0x000035a4       0x2c c:/program files (x86)/microchip/xc32/v2.15/bin/bin/../../lib/gcc/pic32mx/4.8.3/../../../../pic32mx/lib\libc.a(fgetc.o)
 .debug_frame   0x000035d0       0x2c c:/program files (x86)/microchip/xc32/v2.15/bin/bin/../../lib/gcc/pic32mx/4.8.3/../../../../pic32mx/lib\libc.a(_fputc_simple.o)
 .debug_frame   0x000035fc       0x20 c:/program files (x86)/microchip/xc32/v2.15/bin/bin/../../lib/gcc/pic32mx/4.8.3/../../../../pic32mx/lib\libc.a(atoi.o)
 .debug_frame   0x0000361c       0x40 c:/program files (x86)/microchip/xc32/v2.15/bin/bin/../../lib/gcc/pic32mx/4.8.3/../../../../pic32mx/lib\libc.a(strtof.o)
 .debug_frame   0x0000365c       0x20 c:/program files (x86)/microchip/xc32/v2.15/bin/bin/../../lib/gcc/pic32mx/4.8.3/../../../../pic32mx/lib\libc.a(ungetc.o)
 .debug_frame   0x0000367c       0x30 c:/program files (x86)/microchip/xc32/v2.15/bin/bin/../../lib/gcc/pic32mx/4.8.3/../../../../pic32mx/lib\libc.a(filbuf.o)
 .debug_frame   0x000036ac       0x28 c:/program files (x86)/microchip/xc32/v2.15/bin/bin/../../lib/gcc/pic32mx/4.8.3/../../../../pic32mx/lib\libc.a(_flsbuf_simple.o)
 .debug_frame   0x000036d4       0x28 c:/program files (x86)/microchip/xc32/v2.15/bin/bin/../../lib/gcc/pic32mx/4.8.3/../../../../pic32mx/lib\libc.a(fflush.o)
 .debug_frame   0x000036fc       0x38 c:/program files (x86)/microchip/xc32/v2.15/bin/bin/../../lib/gcc/pic32mx/4.8.3/../../../../pic32mx/lib\libm.a(__strtod.o)
 .debug_frame   0x00003734       0x38 c:/program files (x86)/microchip/xc32/v2.15/bin/bin/../../lib/gcc/pic32mx/4.8.3/../../../../pic32mx/lib\libm.a(__strtof.o)
 .debug_frame   0x0000376c       0x2c c:/program files (x86)/microchip/xc32/v2.15/bin/bin/../../lib/gcc/pic32mx/4.8.3/../../../../pic32mx/lib\libe.a(_fixunsdfdi.o)
 .debug_frame   0x00003798       0x20 c:/program files (x86)/microchip/xc32/v2.15/bin/bin/../../lib/gcc/pic32mx/4.8.3/../../../../pic32mx/lib\libe.a(_orderdf2.o)
 .debug_frame   0x000037b8       0x2c c:/program files (x86)/microchip/xc32/v2.15/bin/bin/../../lib/gcc/pic32mx/4.8.3/../../../../pic32mx/lib\libe.a(_ldexp.o)
 .debug_frame   0x000037e4       0x20 c:/program files (x86)/microchip/xc32/v2.15/bin/bin/../../lib/gcc/pic32mx/4.8.3/../../../../pic32mx/lib\libe.a(_ldexpf.o)
 .debug_frame   0x00003804       0x20 c:/program files (x86)/microchip/xc32/v2.15/bin/bin/../../lib/gcc/pic32mx/4.8.3/../../../../pic32mx/lib\libe.a(_fixdfdi.o)
 .debug_frame   0x00003824       0x20 c:/program files (x86)/microchip/xc32/v2.15/bin/bin/../../lib/gcc/pic32mx/4.8.3\libgcc.a(_lshrdi3.o)
 .debug_frame   0x00003844       0x20 c:/program files (x86)/microchip/xc32/v2.15/bin/bin/../../lib/gcc/pic32mx/4.8.3\libgcc.a(_ashldi3.o)
 .debug_frame   0x00003864       0x28 c:/program files (x86)/microchip/xc32/v2.15/bin/bin/../../lib/gcc/pic32mx/4.8.3\libgcc.a(_floatundidf.o)
 .debug_frame   0x0000388c       0x20 c:/program files (x86)/microchip/xc32/v2.15/bin/bin/../../lib/gcc/pic32mx/4.8.3\libgcc.a(_udivdi3.o)
 .debug_frame   0x000038ac       0x20 c:/program files (x86)/microchip/xc32/v2.15/bin/bin/../../lib/gcc/pic32mx/4.8.3\libgcc.a(_umoddi3.o)
 .debug_frame   0x000038cc       0x28 c:/program files (x86)/microchip/xc32/v2.15/bin/bin/../../lib/gcc/pic32mx/4.8.3\libgcc.a(floatunsidf.o)
 .debug_frame   0x000038f4       0x84 c:/program files (x86)/microchip/xc32/v2.15/bin/bin/../../lib/gcc/pic32mx/4.8.3/../../../../pic32mx/lib\libpic32.a(sbrk.o)
 .debug_frame   0x00003978       0x2c c:/program files (x86)/microchip/xc32/v2.15/bin/bin/../../lib/gcc/pic32mx/4.8.3/../../../../pic32mx/lib\libpic32.a(read.o)
 .debug_frame   0x000039a4       0x38 c:/program files (x86)/microchip/xc32/v2.15/bin/bin/../../lib/gcc/pic32mx/4.8.3/../../../../pic32mx/lib\libpic32.a(write.o)
 .debug_frame   0x000039dc       0x28 c:/program files (x86)/microchip/xc32/v2.15/bin/bin/../../lib/gcc/pic32mx/4.8.3/../../../../pic32mx/lib\libpic32.a(_mon_putc.o)

.debug_str      0x00000000      0xd8a
 *(.debug_str)
 .debug_str     0x00000000        0x0 c:/program files (x86)/microchip/xc32/v2.15/bin/bin/../../lib/gcc/pic32mx/4.8.3/../../../../pic32mx/lib\software-debug-break.o
 .debug_str     0x00000000       0x8e build/default/debug/_ext/1361460060/drv_adc_static.o
 .debug_str     0x0000008e       0x9d build/default/debug/_ext/1407244131/drv_tmr_static.o
 .debug_str     0x0000012b        0xe build/default/debug/_ext/1407244131/drv_tmr_mapping.o
 .debug_str     0x00000139       0x23 build/default/debug/_ext/327000265/drv_usart_mapping.o
 .debug_str     0x0000015c      0x139 build/default/debug/_ext/327000265/drv_usart_static.o
 .debug_str     0x00000295       0x22 build/default/debug/_ext/327000265/drv_usart_static_byte_model.o
 .debug_str     0x000002b7       0x39 build/default/debug/_ext/639803181/sys_clk_pic32mx.o
 .debug_str     0x000002f0       0x16 build/default/debug/_ext/340578644/sys_devcon.o
 .debug_str     0x00000306        0x6 build/default/debug/_ext/340578644/sys_devcon_pic32mx.o
 .debug_str     0x0000030c       0x55 build/default/debug/_ext/822048611/sys_ports_static.o
 .debug_str     0x00000361       0x2b build/default/debug/_ext/1688732426/system_init.o
 .debug_str     0x0000038c       0x84 build/default/debug/_ext/1688732426/system_interrupt.o
 .debug_str     0x00000410        0x0 build/default/debug/_ext/1688732426/system_exceptions.o
 .debug_str     0x00000410        0x0 build/default/debug/_ext/1688732426/system_tasks.o
 .debug_str     0x00000410        0x9 build/default/debug/_ext/1688732426/rtos_hooks.o
 .debug_str     0x00000419       0x2a build/default/debug/_ext/1360937237/app.o
 .debug_str     0x00000443        0x0 build/default/debug/_ext/1360937237/main.o
 .debug_str     0x00000443       0x21 build/default/debug/_ext/45544379/debug.o
 .debug_str     0x00000464       0x1c build/default/debug/_ext/1360937237/Distance.o
 .debug_str     0x00000480       0x14 build/default/debug/_ext/1360937237/IR.o
 .debug_str     0x00000494        0x0 build/default/debug/_ext/1360937237/TxThread.o
 .debug_str     0x00000494       0x6f build/default/debug/_ext/45544379/JSON.o
 .debug_str     0x00000503      0x141 build/default/debug/_ext/45544379/cJSON.o
 .debug_str     0x00000644        0xa build/default/debug/_ext/45544379/md5.o
 .debug_str     0x0000064e       0x8c build/default/debug/_ext/45544379/sensor_queue.o
 .debug_str     0x000006da       0x40 build/default/debug/_ext/24337685/osal_freertos.o
 .debug_str     0x0000071a       0x1d build/default/debug/_ext/122796885/sys_int_pic32.o
 .debug_str     0x00000737       0x1d build/default/debug/_ext/1856876499/heap_1.o
 .debug_str     0x00000754       0x37 build/default/debug/_ext/12131622/port.o
 .debug_str     0x0000078b        0x0 build/default/debug/_ext/1128951024/croutine.o
 .debug_str     0x0000078b       0x2b build/default/debug/_ext/1128951024/list.o
 .debug_str     0x000007b6      0x131 build/default/debug/_ext/1128951024/queue.o
 .debug_str     0x000008e7      0x19c build/default/debug/_ext/1128951024/tasks.o
 .debug_str     0x00000a83       0xd2 build/default/debug/_ext/1128951024/timers.o
 .debug_str     0x00000b55       0xe6 build/default/debug/_ext/1128951024/event_groups.o
 .debug_str     0x00000c3b      0x13d build/default/debug/_ext/1128951024/stream_buffer.o
 .debug_str     0x00000d78        0x0 c:/program files (x86)/microchip/xc32/v2.15/bin/bin/../../lib/gcc/pic32mx/4.8.3\libgcc.a(floatunsisf.o)
 .debug_str     0x00000d78        0x0 c:/program files (x86)/microchip/xc32/v2.15/bin/bin/../../lib/gcc/pic32mx/4.8.3/../../../../pic32mx/lib\libpic32.a(default-bootstrap-exception-handler.o)
 .debug_str     0x00000d78        0x0 c:/program files (x86)/microchip/xc32/v2.15/bin/bin/../../lib/gcc/pic32mx/4.8.3/../../../../pic32mx/lib\libpic32.a(default-on-reset.o)
 .debug_str     0x00000d78        0x0 c:/program files (x86)/microchip/xc32/v2.15/bin/bin/../../lib/gcc/pic32mx/4.8.3/../../../../pic32mx/lib\libpic32.a(default-on-bootstrap.o)
 .debug_str     0x00000d78        0x0 c:/program files (x86)/microchip/xc32/v2.15/bin/bin/../../lib/gcc/pic32mx/4.8.3/../../../../pic32mx/lib\libpic32.a(defaultinterrupt.o)
 .debug_str     0x00000d78        0x0 c:/program files (x86)/microchip/xc32/v2.15/bin/bin/../../lib/gcc/pic32mx/4.8.3/../../../../pic32mx/lib\libc.a(ctypef.o)
 .debug_str     0x00000d78        0x0 c:/program files (x86)/microchip/xc32/v2.15/bin/bin/../../lib/gcc/pic32mx/4.8.3/../../../../pic32mx/lib\libc.a(malloc.o)
 .debug_str     0x00000d78        0x0 c:/program files (x86)/microchip/xc32/v2.15/bin/bin/../../lib/gcc/pic32mx/4.8.3/../../../../pic32mx/lib\libc.a(strcat.o)
 .debug_str     0x00000d78        0x0 c:/program files (x86)/microchip/xc32/v2.15/bin/bin/../../lib/gcc/pic32mx/4.8.3/../../../../pic32mx/lib\libc.a(strncmp.o)
 .debug_str     0x00000d78        0x9 c:/program files (x86)/microchip/xc32/v2.15/bin/bin/../../lib/gcc/pic32mx/4.8.3/../../../../pic32mx/lib\libc.a(strtod.o)
 .debug_str     0x00000d81        0x0 c:/program files (x86)/microchip/xc32/v2.15/bin/bin/../../lib/gcc/pic32mx/4.8.3/../../../../pic32mx/lib\libc.a(sprintf_cdgGnopuxX.eo)
 .debug_str     0x00000d81        0x0 c:/program files (x86)/microchip/xc32/v2.15/bin/bin/../../lib/gcc/pic32mx/4.8.3/../../../../pic32mx/lib\libc.a(sscanf_gG.eo)
 .debug_str     0x00000d81        0x0 c:/program files (x86)/microchip/xc32/v2.15/bin/bin/../../lib/gcc/pic32mx/4.8.3/../../../../pic32mx/lib\libc.a(ctype.o)
 .debug_str     0x00000d81        0x0 c:/program files (x86)/microchip/xc32/v2.15/bin/bin/../../lib/gcc/pic32mx/4.8.3/../../../../pic32mx/lib\libc.a(doprnt_cdgGnopuxX.eo)
 .debug_str     0x00000d81        0x0 c:/program files (x86)/microchip/xc32/v2.15/bin/bin/../../lib/gcc/pic32mx/4.8.3/../../../../pic32mx/lib\libc.a(doscan_gG.eo)
 .debug_str     0x00000d81        0x0 c:/program files (x86)/microchip/xc32/v2.15/bin/bin/../../lib/gcc/pic32mx/4.8.3/../../../../pic32mx/lib\libc.a(fgetc.o)
 .debug_str     0x00000d81        0x0 c:/program files (x86)/microchip/xc32/v2.15/bin/bin/../../lib/gcc/pic32mx/4.8.3/../../../../pic32mx/lib\libc.a(_fputc_simple.o)
 .debug_str     0x00000d81        0x0 c:/program files (x86)/microchip/xc32/v2.15/bin/bin/../../lib/gcc/pic32mx/4.8.3/../../../../pic32mx/lib\libc.a(atoi.o)
 .debug_str     0x00000d81        0x0 c:/program files (x86)/microchip/xc32/v2.15/bin/bin/../../lib/gcc/pic32mx/4.8.3/../../../../pic32mx/lib\libc.a(ldpowers.o)
 .debug_str     0x00000d81        0x9 c:/program files (x86)/microchip/xc32/v2.15/bin/bin/../../lib/gcc/pic32mx/4.8.3/../../../../pic32mx/lib\libc.a(strtof.o)
 .debug_str     0x00000d8a        0x0 c:/program files (x86)/microchip/xc32/v2.15/bin/bin/../../lib/gcc/pic32mx/4.8.3/../../../../pic32mx/lib\libc.a(ungetc.o)
 .debug_str     0x00000d8a        0x0 c:/program files (x86)/microchip/xc32/v2.15/bin/bin/../../lib/gcc/pic32mx/4.8.3/../../../../pic32mx/lib\libc.a(_iob.o)
 .debug_str     0x00000d8a        0x0 c:/program files (x86)/microchip/xc32/v2.15/bin/bin/../../lib/gcc/pic32mx/4.8.3/../../../../pic32mx/lib\libc.a(filbuf.o)
 .debug_str     0x00000d8a        0x0 c:/program files (x86)/microchip/xc32/v2.15/bin/bin/../../lib/gcc/pic32mx/4.8.3/../../../../pic32mx/lib\libc.a(_flsbuf_simple.o)
 .debug_str     0x00000d8a        0x0 c:/program files (x86)/microchip/xc32/v2.15/bin/bin/../../lib/gcc/pic32mx/4.8.3/../../../../pic32mx/lib\libc.a(fflush.o)
 .debug_str     0x00000d8a        0x0 c:/program files (x86)/microchip/xc32/v2.15/bin/bin/../../lib/gcc/pic32mx/4.8.3/../../../../pic32mx/lib\libm.a(__strtod.o)
 .debug_str     0x00000d8a        0x0 c:/program files (x86)/microchip/xc32/v2.15/bin/bin/../../lib/gcc/pic32mx/4.8.3/../../../../pic32mx/lib\libm.a(__strtof.o)
 .debug_str     0x00000d8a        0x0 c:/program files (x86)/microchip/xc32/v2.15/bin/bin/../../lib/gcc/pic32mx/4.8.3/../../../../pic32mx/lib\libe.a(_fixunsdfdi.o)
 .debug_str     0x00000d8a        0x0 c:/program files (x86)/microchip/xc32/v2.15/bin/bin/../../lib/gcc/pic32mx/4.8.3/../../../../pic32mx/lib\libe.a(_orderdf2.o)
 .debug_str     0x00000d8a        0x0 c:/program files (x86)/microchip/xc32/v2.15/bin/bin/../../lib/gcc/pic32mx/4.8.3/../../../../pic32mx/lib\libe.a(_ldexp.o)
 .debug_str     0x00000d8a        0x0 c:/program files (x86)/microchip/xc32/v2.15/bin/bin/../../lib/gcc/pic32mx/4.8.3/../../../../pic32mx/lib\libe.a(_ldexpf.o)
 .debug_str     0x00000d8a        0x0 c:/program files (x86)/microchip/xc32/v2.15/bin/bin/../../lib/gcc/pic32mx/4.8.3/../../../../pic32mx/lib\libe.a(_fixdfdi.o)
 .debug_str     0x00000d8a        0x0 c:/program files (x86)/microchip/xc32/v2.15/bin/bin/../../lib/gcc/pic32mx/4.8.3\libgcc.a(_lshrdi3.o)
 .debug_str     0x00000d8a        0x0 c:/program files (x86)/microchip/xc32/v2.15/bin/bin/../../lib/gcc/pic32mx/4.8.3\libgcc.a(_ashldi3.o)
 .debug_str     0x00000d8a        0x0 c:/program files (x86)/microchip/xc32/v2.15/bin/bin/../../lib/gcc/pic32mx/4.8.3\libgcc.a(_floatundidf.o)
 .debug_str     0x00000d8a        0x0 c:/program files (x86)/microchip/xc32/v2.15/bin/bin/../../lib/gcc/pic32mx/4.8.3\libgcc.a(_udivdi3.o)
 .debug_str     0x00000d8a        0x0 c:/program files (x86)/microchip/xc32/v2.15/bin/bin/../../lib/gcc/pic32mx/4.8.3\libgcc.a(_umoddi3.o)
 .debug_str     0x00000d8a        0x0 c:/program files (x86)/microchip/xc32/v2.15/bin/bin/../../lib/gcc/pic32mx/4.8.3\libgcc.a(floatunsidf.o)
 .debug_str     0x00000d8a        0x0 c:/program files (x86)/microchip/xc32/v2.15/bin/bin/../../lib/gcc/pic32mx/4.8.3/../../../../pic32mx/lib\libpic32.a(sbrk.o)
 .debug_str     0x00000d8a        0x0 c:/program files (x86)/microchip/xc32/v2.15/bin/bin/../../lib/gcc/pic32mx/4.8.3/../../../../pic32mx/lib\libpic32.a(read.o)
 .debug_str     0x00000d8a        0x0 c:/program files (x86)/microchip/xc32/v2.15/bin/bin/../../lib/gcc/pic32mx/4.8.3/../../../../pic32mx/lib\libpic32.a(write.o)
 .debug_str     0x00000d8a        0x0 c:/program files (x86)/microchip/xc32/v2.15/bin/bin/../../lib/gcc/pic32mx/4.8.3/../../../../pic32mx/lib\libpic32.a(xc32_uart.o)
 .debug_str     0x00000d8a        0x0 c:/program files (x86)/microchip/xc32/v2.15/bin/bin/../../lib/gcc/pic32mx/4.8.3/../../../../pic32mx/lib\libpic32.a(errno.o)
 .debug_str     0x00000d8a        0x0 c:/program files (x86)/microchip/xc32/v2.15/bin/bin/../../lib/gcc/pic32mx/4.8.3/../../../../pic32mx/lib\libpic32.a(_mon_putc.o)

.debug_loc      0x00000000    0x11af7
 *(.debug_loc)
 .debug_loc     0x00000000       0x42 build/default/debug/_ext/1361460060/drv_adc_static.o
 .debug_loc     0x00000042      0x5be build/default/debug/_ext/1407244131/drv_tmr_static.o
 .debug_loc     0x00000600      0x59f build/default/debug/_ext/1407244131/drv_tmr_mapping.o
 .debug_loc     0x00000b9f      0xd41 build/default/debug/_ext/327000265/drv_usart_mapping.o
 .debug_loc     0x000018e0     0x1ba4 build/default/debug/_ext/327000265/drv_usart_static.o
 .debug_loc     0x00003484      0x27c build/default/debug/_ext/327000265/drv_usart_static_byte_model.o
 .debug_loc     0x00003700       0xc1 build/default/debug/_ext/639803181/sys_clk_pic32mx.o
 .debug_loc     0x000037c1      0x150 build/default/debug/_ext/340578644/sys_devcon.o
 .debug_loc     0x00003911       0xfa build/default/debug/_ext/340578644/sys_devcon_pic32mx.o
 .debug_loc     0x00003a0b      0x74e build/default/debug/_ext/822048611/sys_ports_static.o
 .debug_loc     0x00004159       0x41 build/default/debug/_ext/1688732426/system_init.o
 .debug_loc     0x0000419a      0x3ec build/default/debug/_ext/1688732426/system_interrupt.o
 .debug_loc     0x00004586       0x20 build/default/debug/_ext/1688732426/system_exceptions.o
 .debug_loc     0x000045a6       0xc0 build/default/debug/_ext/1688732426/system_tasks.o
 .debug_loc     0x00004666       0x8a build/default/debug/_ext/1688732426/rtos_hooks.o
 .debug_loc     0x000046f0       0xcc build/default/debug/_ext/1360937237/app.o
 .debug_loc     0x000047bc       0x20 build/default/debug/_ext/1360937237/main.o
 .debug_loc     0x000047dc       0xdf build/default/debug/_ext/45544379/debug.o
 .debug_loc     0x000048bb       0x4b build/default/debug/_ext/1360937237/Distance.o
 .debug_loc     0x00004906       0x81 build/default/debug/_ext/1360937237/IR.o
 .debug_loc     0x00004987       0x99 build/default/debug/_ext/1360937237/TxThread.o
 .debug_loc     0x00004a20      0x7e8 build/default/debug/_ext/45544379/JSON.o
 .debug_loc     0x00005208     0x414b build/default/debug/_ext/45544379/cJSON.o
 .debug_loc     0x00009353      0x72c build/default/debug/_ext/45544379/md5.o
 .debug_loc     0x00009a7f      0x694 build/default/debug/_ext/45544379/sensor_queue.o
 .debug_loc     0x0000a113      0x566 build/default/debug/_ext/24337685/osal_freertos.o
 .debug_loc     0x0000a679       0xfc build/default/debug/_ext/122796885/sys_int_pic32.o
 .debug_loc     0x0000a775      0x2f9 build/default/debug/_ext/1856876499/heap_1.o
 .debug_loc     0x0000aa6e      0x1b5 build/default/debug/_ext/12131622/port.o
 .debug_loc     0x0000ac23       0x44 build/default/debug/_ext/1128951024/list.o
 .debug_loc     0x0000ac67     0x1450 build/default/debug/_ext/1128951024/queue.o
 .debug_loc     0x0000c0b7     0x1bc5 build/default/debug/_ext/1128951024/tasks.o
 .debug_loc     0x0000dc7c      0x961 build/default/debug/_ext/1128951024/timers.o
 .debug_loc     0x0000e5dd      0xa2a build/default/debug/_ext/1128951024/event_groups.o
 .debug_loc     0x0000f007     0x1253 build/default/debug/_ext/1128951024/stream_buffer.o
 .debug_loc     0x0001025a       0x74 c:/program files (x86)/microchip/xc32/v2.15/bin/bin/../../lib/gcc/pic32mx/4.8.3\libgcc.a(floatunsisf.o)
 .debug_loc     0x000102ce       0x2c c:/program files (x86)/microchip/xc32/v2.15/bin/bin/../../lib/gcc/pic32mx/4.8.3/../../../../pic32mx/lib\libpic32.a(default-bootstrap-exception-handler.o)
 .debug_loc     0x000102fa       0x20 c:/program files (x86)/microchip/xc32/v2.15/bin/bin/../../lib/gcc/pic32mx/4.8.3/../../../../pic32mx/lib\libm.a(__strtod.o)
 .debug_loc     0x0001031a       0x20 c:/program files (x86)/microchip/xc32/v2.15/bin/bin/../../lib/gcc/pic32mx/4.8.3/../../../../pic32mx/lib\libm.a(__strtof.o)
 .debug_loc     0x0001033a       0x20 c:/program files (x86)/microchip/xc32/v2.15/bin/bin/../../lib/gcc/pic32mx/4.8.3/../../../../pic32mx/lib\libe.a(_fixunsdfdi.o)
 .debug_loc     0x0001035a       0x20 c:/program files (x86)/microchip/xc32/v2.15/bin/bin/../../lib/gcc/pic32mx/4.8.3/../../../../pic32mx/lib\libe.a(_ldexp.o)
 .debug_loc     0x0001037a       0xbb c:/program files (x86)/microchip/xc32/v2.15/bin/bin/../../lib/gcc/pic32mx/4.8.3\libgcc.a(_lshrdi3.o)
 .debug_loc     0x00010435       0x82 c:/program files (x86)/microchip/xc32/v2.15/bin/bin/../../lib/gcc/pic32mx/4.8.3\libgcc.a(_ashldi3.o)
 .debug_loc     0x000104b7       0x41 c:/program files (x86)/microchip/xc32/v2.15/bin/bin/../../lib/gcc/pic32mx/4.8.3\libgcc.a(_floatundidf.o)
 .debug_loc     0x000104f8      0xa6a c:/program files (x86)/microchip/xc32/v2.15/bin/bin/../../lib/gcc/pic32mx/4.8.3\libgcc.a(_udivdi3.o)
 .debug_loc     0x00010f62      0xa3d c:/program files (x86)/microchip/xc32/v2.15/bin/bin/../../lib/gcc/pic32mx/4.8.3\libgcc.a(_umoddi3.o)
 .debug_loc     0x0001199f       0x80 c:/program files (x86)/microchip/xc32/v2.15/bin/bin/../../lib/gcc/pic32mx/4.8.3\libgcc.a(floatunsidf.o)
 .debug_loc     0x00011a1f       0x60 c:/program files (x86)/microchip/xc32/v2.15/bin/bin/../../lib/gcc/pic32mx/4.8.3/../../../../pic32mx/lib\libpic32.a(sbrk.o)
 .debug_loc     0x00011a7f       0x20 c:/program files (x86)/microchip/xc32/v2.15/bin/bin/../../lib/gcc/pic32mx/4.8.3/../../../../pic32mx/lib\libpic32.a(read.o)
 .debug_loc     0x00011a9f       0x38 c:/program files (x86)/microchip/xc32/v2.15/bin/bin/../../lib/gcc/pic32mx/4.8.3/../../../../pic32mx/lib\libpic32.a(write.o)
 .debug_loc     0x00011ad7       0x20 c:/program files (x86)/microchip/xc32/v2.15/bin/bin/../../lib/gcc/pic32mx/4.8.3/../../../../pic32mx/lib\libpic32.a(_mon_putc.o)

.debug_macinfo
 *(.debug_macinfo)

.debug_weaknames
 *(.debug_weaknames)

.debug_funcnames
 *(.debug_funcnames)

.debug_typenames
 *(.debug_typenames)

.debug_varnames
 *(.debug_varnames)

.debug_pubtypes
 *(.debug_pubtypes)

.debug_ranges   0x00000000     0x1cb8
 *(.debug_ranges)
 .debug_ranges  0x00000000       0x10 c:/program files (x86)/microchip/xc32/v2.15/bin/bin/../../lib/gcc/pic32mx/4.8.3/../../../../pic32mx/lib\software-debug-break.o
 .debug_ranges  0x00000010       0x68 build/default/debug/_ext/1361460060/drv_adc_static.o
 .debug_ranges  0x00000078      0x128 build/default/debug/_ext/1407244131/drv_tmr_static.o
 .debug_ranges  0x000001a0       0xd8 build/default/debug/_ext/1407244131/drv_tmr_mapping.o
 .debug_ranges  0x00000278       0xa0 build/default/debug/_ext/327000265/drv_usart_mapping.o
 .debug_ranges  0x00000318      0x288 build/default/debug/_ext/327000265/drv_usart_static.o
 .debug_ranges  0x000005a0       0xc8 build/default/debug/_ext/327000265/drv_usart_static_byte_model.o
 .debug_ranges  0x00000668       0x40 build/default/debug/_ext/639803181/sys_clk_pic32mx.o
 .debug_ranges  0x000006a8       0x68 build/default/debug/_ext/340578644/sys_devcon.o
 .debug_ranges  0x00000710       0x10 build/default/debug/_ext/340578644/sys_devcon_pic32mx.o
 .debug_ranges  0x00000720      0x138 build/default/debug/_ext/822048611/sys_ports_static.o
 .debug_ranges  0x00000858       0x10 build/default/debug/_ext/1688732426/system_init.o
 .debug_ranges  0x00000868       0xb8 build/default/debug/_ext/1688732426/system_interrupt.o
 .debug_ranges  0x00000920       0x10 build/default/debug/_ext/1688732426/system_exceptions.o
 .debug_ranges  0x00000930       0x38 build/default/debug/_ext/1688732426/system_tasks.o
 .debug_ranges  0x00000968       0x80 build/default/debug/_ext/1688732426/system_interrupt_a.o
 .debug_ranges  0x000009e8       0x18 build/default/debug/_ext/1688732426/rtos_hooks.o
 .debug_ranges  0x00000a00       0x20 build/default/debug/_ext/1360937237/app.o
 .debug_ranges  0x00000a20       0x10 build/default/debug/_ext/1360937237/main.o
 .debug_ranges  0x00000a30       0x38 build/default/debug/_ext/45544379/debug.o
 .debug_ranges  0x00000a68       0x18 build/default/debug/_ext/1360937237/Distance.o
 .debug_ranges  0x00000a80       0x38 build/default/debug/_ext/1360937237/IR.o
 .debug_ranges  0x00000ab8       0x28 build/default/debug/_ext/1360937237/TxThread.o
 .debug_ranges  0x00000ae0       0x70 build/default/debug/_ext/45544379/JSON.o
 .debug_ranges  0x00000b50      0x4e8 build/default/debug/_ext/45544379/cJSON.o
 .debug_ranges  0x00001038       0x28 build/default/debug/_ext/45544379/md5.o
 .debug_ranges  0x00001060       0xa0 build/default/debug/_ext/45544379/sensor_queue.o
 .debug_ranges  0x00001100       0x78 build/default/debug/_ext/24337685/osal_freertos.o
 .debug_ranges  0x00001178       0x50 build/default/debug/_ext/122796885/sys_int_pic32.o
 .debug_ranges  0x000011c8       0x50 build/default/debug/_ext/1856876499/heap_1.o
 .debug_ranges  0x00001218       0x48 build/default/debug/_ext/12131622/port.o
 .debug_ranges  0x00001260       0x30 build/default/debug/_ext/1128951024/list.o
 .debug_ranges  0x00001290      0x150 build/default/debug/_ext/1128951024/queue.o
 .debug_ranges  0x000013e0      0x1e0 build/default/debug/_ext/1128951024/tasks.o
 .debug_ranges  0x000015c0      0x120 build/default/debug/_ext/1128951024/timers.o
 .debug_ranges  0x000016e0       0x98 build/default/debug/_ext/1128951024/event_groups.o
 .debug_ranges  0x00001778       0xb8 build/default/debug/_ext/1128951024/stream_buffer.o
 .debug_ranges  0x00001830       0x38 C:\Users\MOQIZH~1\AppData\Local\Temp\ccYY4veD.o
 .debug_ranges  0x00001868       0x10 c:/program files (x86)/microchip/xc32/v2.15/bin/bin/../../lib/gcc/pic32mx/4.8.3/../../../../pic32mx/lib\libpic32.a(default-bootstrap-exception-handler.o)
 .debug_ranges  0x00001878       0x10 c:/program files (x86)/microchip/xc32/v2.15/bin/bin/../../lib/gcc/pic32mx/4.8.3/../../../../pic32mx/lib\libpic32.a(default-on-reset.o)
 .debug_ranges  0x00001888       0x10 c:/program files (x86)/microchip/xc32/v2.15/bin/bin/../../lib/gcc/pic32mx/4.8.3/../../../../pic32mx/lib\libpic32.a(default-on-bootstrap.o)
 .debug_ranges  0x00001898       0x10 c:/program files (x86)/microchip/xc32/v2.15/bin/bin/../../lib/gcc/pic32mx/4.8.3/../../../../pic32mx/lib\libpic32.a(defaultinterrupt.o)
 .debug_ranges  0x000018a8       0x90 c:/program files (x86)/microchip/xc32/v2.15/bin/bin/../../lib/gcc/pic32mx/4.8.3/../../../../pic32mx/lib\libc.a(ctypef.o)
 .debug_ranges  0x00001938       0x20 c:/program files (x86)/microchip/xc32/v2.15/bin/bin/../../lib/gcc/pic32mx/4.8.3/../../../../pic32mx/lib\libc.a(malloc.o)
 .debug_ranges  0x00001958       0x10 c:/program files (x86)/microchip/xc32/v2.15/bin/bin/../../lib/gcc/pic32mx/4.8.3/../../../../pic32mx/lib\libc.a(strcat.o)
 .debug_ranges  0x00001968       0x10 c:/program files (x86)/microchip/xc32/v2.15/bin/bin/../../lib/gcc/pic32mx/4.8.3/../../../../pic32mx/lib\libc.a(strncmp.o)
 .debug_ranges  0x00001978       0x18 c:/program files (x86)/microchip/xc32/v2.15/bin/bin/../../lib/gcc/pic32mx/4.8.3/../../../../pic32mx/lib\libc.a(strtod.o)
 .debug_ranges  0x00001990       0x10 c:/program files (x86)/microchip/xc32/v2.15/bin/bin/../../lib/gcc/pic32mx/4.8.3/../../../../pic32mx/lib\libc.a(sprintf_cdgGnopuxX.eo)
 .debug_ranges  0x000019a0       0x10 c:/program files (x86)/microchip/xc32/v2.15/bin/bin/../../lib/gcc/pic32mx/4.8.3/../../../../pic32mx/lib\libc.a(sscanf_gG.eo)
 .debug_ranges  0x000019b0       0x20 c:/program files (x86)/microchip/xc32/v2.15/bin/bin/../../lib/gcc/pic32mx/4.8.3/../../../../pic32mx/lib\libc.a(doprnt_cdgGnopuxX.eo)
 .debug_ranges  0x000019d0       0x20 c:/program files (x86)/microchip/xc32/v2.15/bin/bin/../../lib/gcc/pic32mx/4.8.3/../../../../pic32mx/lib\libc.a(doscan_gG.eo)
 .debug_ranges  0x000019f0       0x10 c:/program files (x86)/microchip/xc32/v2.15/bin/bin/../../lib/gcc/pic32mx/4.8.3/../../../../pic32mx/lib\libc.a(fgetc.o)
 .debug_ranges  0x00001a00       0x10 c:/program files (x86)/microchip/xc32/v2.15/bin/bin/../../lib/gcc/pic32mx/4.8.3/../../../../pic32mx/lib\libc.a(_fputc_simple.o)
 .debug_ranges  0x00001a10       0x10 c:/program files (x86)/microchip/xc32/v2.15/bin/bin/../../lib/gcc/pic32mx/4.8.3/../../../../pic32mx/lib\libc.a(atoi.o)
 .debug_ranges  0x00001a20       0x18 c:/program files (x86)/microchip/xc32/v2.15/bin/bin/../../lib/gcc/pic32mx/4.8.3/../../../../pic32mx/lib\libc.a(strtof.o)
 .debug_ranges  0x00001a38       0x10 c:/program files (x86)/microchip/xc32/v2.15/bin/bin/../../lib/gcc/pic32mx/4.8.3/../../../../pic32mx/lib\libc.a(ungetc.o)
 .debug_ranges  0x00001a48       0x10 c:/program files (x86)/microchip/xc32/v2.15/bin/bin/../../lib/gcc/pic32mx/4.8.3/../../../../pic32mx/lib\libc.a(filbuf.o)
 .debug_ranges  0x00001a58       0x10 c:/program files (x86)/microchip/xc32/v2.15/bin/bin/../../lib/gcc/pic32mx/4.8.3/../../../../pic32mx/lib\libc.a(_flsbuf_simple.o)
 .debug_ranges  0x00001a68       0x10 c:/program files (x86)/microchip/xc32/v2.15/bin/bin/../../lib/gcc/pic32mx/4.8.3/../../../../pic32mx/lib\libc.a(fflush.o)
 .debug_ranges  0x00001a78       0x10 c:/program files (x86)/microchip/xc32/v2.15/bin/bin/../../lib/gcc/pic32mx/4.8.3/../../../../pic32mx/lib\libm.a(__strtod.o)
 .debug_ranges  0x00001a88       0x10 c:/program files (x86)/microchip/xc32/v2.15/bin/bin/../../lib/gcc/pic32mx/4.8.3/../../../../pic32mx/lib\libm.a(__strtof.o)
 .debug_ranges  0x00001a98       0x10 c:/program files (x86)/microchip/xc32/v2.15/bin/bin/../../lib/gcc/pic32mx/4.8.3/../../../../pic32mx/lib\libe.a(_fixunsdfdi.o)
 .debug_ranges  0x00001aa8       0x10 c:/program files (x86)/microchip/xc32/v2.15/bin/bin/../../lib/gcc/pic32mx/4.8.3/../../../../pic32mx/lib\libe.a(_orderdf2.o)
 .debug_ranges  0x00001ab8       0x10 c:/program files (x86)/microchip/xc32/v2.15/bin/bin/../../lib/gcc/pic32mx/4.8.3/../../../../pic32mx/lib\libe.a(_ldexp.o)
 .debug_ranges  0x00001ac8       0x10 c:/program files (x86)/microchip/xc32/v2.15/bin/bin/../../lib/gcc/pic32mx/4.8.3/../../../../pic32mx/lib\libe.a(_ldexpf.o)
 .debug_ranges  0x00001ad8       0x10 c:/program files (x86)/microchip/xc32/v2.15/bin/bin/../../lib/gcc/pic32mx/4.8.3/../../../../pic32mx/lib\libe.a(_fixdfdi.o)
 .debug_ranges  0x00001ae8       0x98 c:/program files (x86)/microchip/xc32/v2.15/bin/bin/../../lib/gcc/pic32mx/4.8.3\libgcc.a(_udivdi3.o)
 .debug_ranges  0x00001b80       0xd8 c:/program files (x86)/microchip/xc32/v2.15/bin/bin/../../lib/gcc/pic32mx/4.8.3\libgcc.a(_umoddi3.o)
 .debug_ranges  0x00001c58       0x30 c:/program files (x86)/microchip/xc32/v2.15/bin/bin/../../lib/gcc/pic32mx/4.8.3/../../../../pic32mx/lib\libpic32.a(sbrk.o)
 .debug_ranges  0x00001c88       0x10 c:/program files (x86)/microchip/xc32/v2.15/bin/bin/../../lib/gcc/pic32mx/4.8.3/../../../../pic32mx/lib\libpic32.a(read.o)
 .debug_ranges  0x00001c98       0x10 c:/program files (x86)/microchip/xc32/v2.15/bin/bin/../../lib/gcc/pic32mx/4.8.3/../../../../pic32mx/lib\libpic32.a(write.o)
 .debug_ranges  0x00001ca8       0x10 c:/program files (x86)/microchip/xc32/v2.15/bin/bin/../../lib/gcc/pic32mx/4.8.3/../../../../pic32mx/lib\libpic32.a(_mon_putc.o)

.gnu.attributes
                0x00000000       0x10
 *(.gnu.attributes)
 .gnu.attributes
                0x00000000       0x10 c:/program files (x86)/microchip/xc32/v2.15/bin/bin/../../lib/gcc/pic32mx/4.8.3/../../../../pic32mx/lib\software-debug-break.o
 .gnu.attributes
                0x00000010       0x10 build/default/debug/_ext/1361460060/drv_adc_static.o
 .gnu.attributes
                0x00000020       0x10 build/default/debug/_ext/1407244131/drv_tmr_static.o
 .gnu.attributes
                0x00000030       0x10 build/default/debug/_ext/1407244131/drv_tmr_mapping.o
 .gnu.attributes
                0x00000040       0x10 build/default/debug/_ext/327000265/drv_usart_mapping.o
 .gnu.attributes
                0x00000050       0x10 build/default/debug/_ext/327000265/drv_usart_static.o
 .gnu.attributes
                0x00000060       0x10 build/default/debug/_ext/327000265/drv_usart_static_byte_model.o
 .gnu.attributes
                0x00000070       0x10 build/default/debug/_ext/639803181/sys_clk_pic32mx.o
 .gnu.attributes
                0x00000080       0x10 build/default/debug/_ext/340578644/sys_devcon.o
 .gnu.attributes
                0x00000090       0x10 build/default/debug/_ext/340578644/sys_devcon_pic32mx.o
 .gnu.attributes
                0x000000a0       0x10 build/default/debug/_ext/822048611/sys_ports_static.o
 .gnu.attributes
                0x000000b0       0x10 build/default/debug/_ext/1688732426/system_init.o
 .gnu.attributes
                0x000000c0       0x10 build/default/debug/_ext/1688732426/system_interrupt.o
 .gnu.attributes
                0x000000d0       0x10 build/default/debug/_ext/1688732426/system_exceptions.o
 .gnu.attributes
                0x000000e0       0x10 build/default/debug/_ext/1688732426/system_tasks.o
 .gnu.attributes
                0x000000f0       0x10 build/default/debug/_ext/1688732426/rtos_hooks.o
 .gnu.attributes
                0x00000100       0x10 build/default/debug/_ext/1360937237/app.o
 .gnu.attributes
                0x00000110       0x10 build/default/debug/_ext/1360937237/main.o
 .gnu.attributes
                0x00000120       0x10 build/default/debug/_ext/45544379/debug.o
 .gnu.attributes
                0x00000130       0x10 build/default/debug/_ext/1360937237/Distance.o
 .gnu.attributes
                0x00000140       0x10 build/default/debug/_ext/1360937237/IR.o
 .gnu.attributes
                0x00000150       0x10 build/default/debug/_ext/1360937237/TxThread.o
 .gnu.attributes
                0x00000160       0x10 build/default/debug/_ext/45544379/JSON.o
 .gnu.attributes
                0x00000170       0x10 build/default/debug/_ext/45544379/cJSON.o
 .gnu.attributes
                0x00000180       0x10 build/default/debug/_ext/45544379/md5.o
 .gnu.attributes
                0x00000190       0x10 build/default/debug/_ext/45544379/sensor_queue.o
 .gnu.attributes
                0x000001a0       0x10 build/default/debug/_ext/24337685/osal_freertos.o
 .gnu.attributes
                0x000001b0       0x10 build/default/debug/_ext/122796885/sys_int_pic32.o
 .gnu.attributes
                0x000001c0       0x10 build/default/debug/_ext/1856876499/heap_1.o
 .gnu.attributes
                0x000001d0       0x10 build/default/debug/_ext/12131622/port.o
 .gnu.attributes
                0x000001e0       0x10 build/default/debug/_ext/1128951024/croutine.o
 .gnu.attributes
                0x000001f0       0x10 build/default/debug/_ext/1128951024/list.o
 .gnu.attributes
                0x00000200       0x10 build/default/debug/_ext/1128951024/queue.o
 .gnu.attributes
                0x00000210       0x10 build/default/debug/_ext/1128951024/tasks.o
 .gnu.attributes
                0x00000220       0x10 build/default/debug/_ext/1128951024/timers.o
 .gnu.attributes
                0x00000230       0x10 build/default/debug/_ext/1128951024/event_groups.o
 .gnu.attributes
                0x00000240       0x10 build/default/debug/_ext/1128951024/stream_buffer.o
 .gnu.attributes
                0x00000250       0x10 c:/program files (x86)/microchip/xc32/v2.15/bin/bin/../../lib/gcc/pic32mx/4.8.3\libgcc.a(floatunsisf.o)
 .gnu.attributes
                0x00000260       0x10 c:/program files (x86)/microchip/xc32/v2.15/bin/bin/../../lib/gcc/pic32mx/4.8.3/../../../../pic32mx/lib\libpic32.a(default-bootstrap-exception-handler.o)
 .gnu.attributes
                0x00000270       0x10 c:/program files (x86)/microchip/xc32/v2.15/bin/bin/../../lib/gcc/pic32mx/4.8.3/../../../../pic32mx/lib\libpic32.a(default-on-reset.o)
 .gnu.attributes
                0x00000280       0x10 c:/program files (x86)/microchip/xc32/v2.15/bin/bin/../../lib/gcc/pic32mx/4.8.3/../../../../pic32mx/lib\libpic32.a(default-on-bootstrap.o)
 .gnu.attributes
                0x00000290       0x10 c:/program files (x86)/microchip/xc32/v2.15/bin/bin/../../lib/gcc/pic32mx/4.8.3/../../../../pic32mx/lib\libpic32.a(defaultinterrupt.o)
 .gnu.attributes
                0x000002a0       0x10 c:/program files (x86)/microchip/xc32/v2.15/bin/bin/../../lib/gcc/pic32mx/4.8.3/../../../../pic32mx/lib\libc.a(ctypef.o)
 .gnu.attributes
                0x000002b0       0x10 c:/program files (x86)/microchip/xc32/v2.15/bin/bin/../../lib/gcc/pic32mx/4.8.3/../../../../pic32mx/lib\libc.a(malloc.o)
 .gnu.attributes
                0x000002c0       0x10 c:/program files (x86)/microchip/xc32/v2.15/bin/bin/../../lib/gcc/pic32mx/4.8.3/../../../../pic32mx/lib\libc.a(strcat.o)
 .gnu.attributes
                0x000002d0       0x10 c:/program files (x86)/microchip/xc32/v2.15/bin/bin/../../lib/gcc/pic32mx/4.8.3/../../../../pic32mx/lib\libc.a(strncmp.o)
 .gnu.attributes
                0x000002e0       0x10 c:/program files (x86)/microchip/xc32/v2.15/bin/bin/../../lib/gcc/pic32mx/4.8.3/../../../../pic32mx/lib\libc.a(strtod.o)
 .gnu.attributes
                0x000002f0       0x10 c:/program files (x86)/microchip/xc32/v2.15/bin/bin/../../lib/gcc/pic32mx/4.8.3/../../../../pic32mx/lib\libc.a(sprintf_cdgGnopuxX.eo)
 .gnu.attributes
                0x00000300       0x10 c:/program files (x86)/microchip/xc32/v2.15/bin/bin/../../lib/gcc/pic32mx/4.8.3/../../../../pic32mx/lib\libc.a(sscanf_gG.eo)
 .gnu.attributes
                0x00000310       0x10 c:/program files (x86)/microchip/xc32/v2.15/bin/bin/../../lib/gcc/pic32mx/4.8.3/../../../../pic32mx/lib\libc.a(ctype.o)
 .gnu.attributes
                0x00000320       0x10 c:/program files (x86)/microchip/xc32/v2.15/bin/bin/../../lib/gcc/pic32mx/4.8.3/../../../../pic32mx/lib\libc.a(doprnt_cdgGnopuxX.eo)
 .gnu.attributes
                0x00000330       0x10 c:/program files (x86)/microchip/xc32/v2.15/bin/bin/../../lib/gcc/pic32mx/4.8.3/../../../../pic32mx/lib\libc.a(doscan_gG.eo)
 .gnu.attributes
                0x00000340       0x10 c:/program files (x86)/microchip/xc32/v2.15/bin/bin/../../lib/gcc/pic32mx/4.8.3/../../../../pic32mx/lib\libc.a(fgetc.o)
 .gnu.attributes
                0x00000350       0x10 c:/program files (x86)/microchip/xc32/v2.15/bin/bin/../../lib/gcc/pic32mx/4.8.3/../../../../pic32mx/lib\libc.a(_fputc_simple.o)
 .gnu.attributes
                0x00000360       0x10 c:/program files (x86)/microchip/xc32/v2.15/bin/bin/../../lib/gcc/pic32mx/4.8.3/../../../../pic32mx/lib\libc.a(atoi.o)
 .gnu.attributes
                0x00000370       0x10 c:/program files (x86)/microchip/xc32/v2.15/bin/bin/../../lib/gcc/pic32mx/4.8.3/../../../../pic32mx/lib\libc.a(ldpowers.o)
 .gnu.attributes
                0x00000380       0x10 c:/program files (x86)/microchip/xc32/v2.15/bin/bin/../../lib/gcc/pic32mx/4.8.3/../../../../pic32mx/lib\libc.a(strtof.o)
 .gnu.attributes
                0x00000390       0x10 c:/program files (x86)/microchip/xc32/v2.15/bin/bin/../../lib/gcc/pic32mx/4.8.3/../../../../pic32mx/lib\libc.a(ungetc.o)
 .gnu.attributes
                0x000003a0       0x10 c:/program files (x86)/microchip/xc32/v2.15/bin/bin/../../lib/gcc/pic32mx/4.8.3/../../../../pic32mx/lib\libc.a(_iob.o)
 .gnu.attributes
                0x000003b0       0x10 c:/program files (x86)/microchip/xc32/v2.15/bin/bin/../../lib/gcc/pic32mx/4.8.3/../../../../pic32mx/lib\libc.a(filbuf.o)
 .gnu.attributes
                0x000003c0       0x10 c:/program files (x86)/microchip/xc32/v2.15/bin/bin/../../lib/gcc/pic32mx/4.8.3/../../../../pic32mx/lib\libc.a(_flsbuf_simple.o)
 .gnu.attributes
                0x000003d0       0x10 c:/program files (x86)/microchip/xc32/v2.15/bin/bin/../../lib/gcc/pic32mx/4.8.3/../../../../pic32mx/lib\libc.a(fflush.o)
 .gnu.attributes
                0x000003e0       0x10 c:/program files (x86)/microchip/xc32/v2.15/bin/bin/../../lib/gcc/pic32mx/4.8.3/../../../../pic32mx/lib\libm.a(__strtod.o)
 .gnu.attributes
                0x000003f0       0x10 c:/program files (x86)/microchip/xc32/v2.15/bin/bin/../../lib/gcc/pic32mx/4.8.3/../../../../pic32mx/lib\libm.a(__strtof.o)
 .gnu.attributes
                0x00000400       0x10 c:/program files (x86)/microchip/xc32/v2.15/bin/bin/../../lib/gcc/pic32mx/4.8.3/../../../../pic32mx/lib\libe.a(_fixunsdfdi.o)
 .gnu.attributes
                0x00000410       0x10 c:/program files (x86)/microchip/xc32/v2.15/bin/bin/../../lib/gcc/pic32mx/4.8.3/../../../../pic32mx/lib\libe.a(_orderdf2.o)
 .gnu.attributes
                0x00000420       0x10 c:/program files (x86)/microchip/xc32/v2.15/bin/bin/../../lib/gcc/pic32mx/4.8.3/../../../../pic32mx/lib\libe.a(_ldexp.o)
 .gnu.attributes
                0x00000430       0x10 c:/program files (x86)/microchip/xc32/v2.15/bin/bin/../../lib/gcc/pic32mx/4.8.3/../../../../pic32mx/lib\libe.a(_ldexpf.o)
 .gnu.attributes
                0x00000440       0x10 c:/program files (x86)/microchip/xc32/v2.15/bin/bin/../../lib/gcc/pic32mx/4.8.3/../../../../pic32mx/lib\libe.a(_fixdfdi.o)
 .gnu.attributes
                0x00000450       0x10 c:/program files (x86)/microchip/xc32/v2.15/bin/bin/../../lib/gcc/pic32mx/4.8.3\libgcc.a(_lshrdi3.o)
 .gnu.attributes
                0x00000460       0x10 c:/program files (x86)/microchip/xc32/v2.15/bin/bin/../../lib/gcc/pic32mx/4.8.3\libgcc.a(_ashldi3.o)
 .gnu.attributes
                0x00000470       0x10 c:/program files (x86)/microchip/xc32/v2.15/bin/bin/../../lib/gcc/pic32mx/4.8.3\libgcc.a(_floatundidf.o)
 .gnu.attributes
                0x00000480       0x10 c:/program files (x86)/microchip/xc32/v2.15/bin/bin/../../lib/gcc/pic32mx/4.8.3\libgcc.a(_udivdi3.o)
 .gnu.attributes
                0x00000490       0x10 c:/program files (x86)/microchip/xc32/v2.15/bin/bin/../../lib/gcc/pic32mx/4.8.3\libgcc.a(_umoddi3.o)
 .gnu.attributes
                0x000004a0       0x10 c:/program files (x86)/microchip/xc32/v2.15/bin/bin/../../lib/gcc/pic32mx/4.8.3\libgcc.a(floatunsidf.o)
 .gnu.attributes
                0x000004b0       0x10 c:/program files (x86)/microchip/xc32/v2.15/bin/bin/../../lib/gcc/pic32mx/4.8.3/../../../../pic32mx/lib\libpic32.a(sbrk.o)
 .gnu.attributes
                0x000004c0       0x10 c:/program files (x86)/microchip/xc32/v2.15/bin/bin/../../lib/gcc/pic32mx/4.8.3/../../../../pic32mx/lib\libpic32.a(read.o)
 .gnu.attributes
                0x000004d0       0x10 c:/program files (x86)/microchip/xc32/v2.15/bin/bin/../../lib/gcc/pic32mx/4.8.3/../../../../pic32mx/lib\libpic32.a(write.o)
 .gnu.attributes
                0x000004e0       0x10 c:/program files (x86)/microchip/xc32/v2.15/bin/bin/../../lib/gcc/pic32mx/4.8.3/../../../../pic32mx/lib\libpic32.a(xc32_uart.o)
 .gnu.attributes
                0x000004f0       0x10 c:/program files (x86)/microchip/xc32/v2.15/bin/bin/../../lib/gcc/pic32mx/4.8.3/../../../../pic32mx/lib\libpic32.a(errno.o)
 .gnu.attributes
                0x00000500       0x10 c:/program files (x86)/microchip/xc32/v2.15/bin/bin/../../lib/gcc/pic32mx/4.8.3/../../../../pic32mx/lib\libpic32.a(_mon_putc.o)
LOAD c:/program files (x86)/microchip/xc32/v2.15/bin/bin/../../lib/gcc/pic32mx/4.8.3\libgcc.a
START GROUP
LOAD c:/program files (x86)/microchip/xc32/v2.15/bin/bin/../../lib/gcc/pic32mx/4.8.3/../../../../pic32mx/lib\libpic32.a
LOAD c:/program files (x86)/microchip/xc32/v2.15/bin/bin/../../lib/gcc/pic32mx/4.8.3/../../../../pic32mx/lib\libdebug.a
LOAD c:/program files (x86)/microchip/xc32/v2.15/bin/bin/../../lib/gcc/pic32mx/4.8.3/../../../../pic32mx/lib\libpic32.a
LOAD c:/program files (x86)/microchip/xc32/v2.15/bin/bin/../../lib/gcc/pic32mx/4.8.3/../../../../pic32mx/lib\libc.a
LOAD c:/program files (x86)/microchip/xc32/v2.15/bin/bin/../../lib/gcc/pic32mx/4.8.3/../../../../pic32mx/lib\libc.a
LOAD c:/program files (x86)/microchip/xc32/v2.15/bin/bin/../../lib/gcc/pic32mx/4.8.3/../../../../pic32mx/lib\libm.a
LOAD c:/program files (x86)/microchip/xc32/v2.15/bin/bin/../../lib/gcc/pic32mx/4.8.3/../../../../pic32mx/lib\libe.a
LOAD c:/program files (x86)/microchip/xc32/v2.15/bin/bin/../../lib/gcc/pic32mx/4.8.3/../../../../pic32mx/lib\libdsp.a
LOAD c:/program files (x86)/microchip/xc32/v2.15/bin/bin/../../lib/gcc/pic32mx/4.8.3\libgcc.a
LOAD c:/program files (x86)/microchip/xc32/v2.15/bin/bin/../../lib/gcc/pic32mx/4.8.3/../../../../pic32mx/lib\libpic32.a
END GROUP
LOAD c:/program files (x86)/microchip/xc32/v2.15/bin/bin/../../lib/gcc/pic32mx/4.8.3\libgcc.a
OUTPUT(dist/default/debug/ultra_UART.X.debug.elf elf32-tradlittlemips)
LOAD stack
LOAD data_init

.reginfo        0x00000000       0x18
 .reginfo       0x00000000       0x18 c:/program files (x86)/microchip/xc32/v2.15/bin/bin/../../lib/gcc/pic32mx/4.8.3/../../../../pic32mx/lib\software-debug-break.o

.stack          0xa000b0e8      0x400
 .stack         0xa000b0e8      0x400 stack

.bss            0xa00003e8     0xa640
 .bss           0xa00003e8     0xa000 build/default/debug/_ext/1856876499/heap_1.o
 .bss           0xa000a3e8      0x640 build/default/debug/_ext/12131622/port.o
                0xa000a3e8                xISRStack

.bss            0xa000aa28      0x400
 .bss           0xa000aa28      0x400 build/default/debug/_ext/1688732426/system_interrupt.o

.data           0xa000ae28      0x1a4
 .data          0xa000ae28      0x100 build/default/debug/_ext/1360937237/Distance.o
                0xa000ae28                lut_ultra
 .data          0xa000af28       0xa4 c:/program files (x86)/microchip/xc32/v2.15/bin/bin/../../lib/gcc/pic32mx/4.8.3/../../../../pic32mx/lib\libc.a(_iob.o)
                0xa000af28                _Files
                0xa000af2c                _iob

.data           0xa000afcc       0x80
 .data          0xa000afcc       0x80 build/default/debug/_ext/1688732426/system_interrupt.o
                0xa000afcc                lut

.bss            0xa000b04c       0x6c
 .bss           0xa000b04c       0x44 c:/program files (x86)/microchip/xc32/v2.15/bin/bin/../../lib/gcc/pic32mx/4.8.3/../../../../pic32mx/lib\libc.a(_iob.o)
                0xa000b04c                _sobuf
                0xa000b06c                _sibuf
                0xa000b08c                _outdone
 .bss           0xa000b090       0x28 build/default/debug/_ext/1128951024/timers.o

.data           0xa000b0b8        0xc
 .data          0xa000b0b8        0xc build/default/debug/_ext/45544379/cJSON.o

.bss            0xa000b0c4        0x4
 .bss           0xa000b0c4        0x4 c:/program files (x86)/microchip/xc32/v2.15/bin/bin/../../lib/gcc/pic32mx/4.8.3/../../../../pic32mx/lib\libc.a(doscan_gG.eo)

.bss.errno      0xa000b0c8        0x4
 .bss.errno     0xa000b0c8        0x4 c:/program files (x86)/microchip/xc32/v2.15/bin/bin/../../lib/gcc/pic32mx/4.8.3/../../../../pic32mx/lib\libpic32.a(errno.o)
                0xa000b0c8                errno

.text._vfprintf_cdgGnopuxX
                0x9d000000     0x1c44
 .text._vfprintf_cdgGnopuxX
                0x9d000000     0x1c44 c:/program files (x86)/microchip/xc32/v2.15/bin/bin/../../lib/gcc/pic32mx/4.8.3/../../../../pic32mx/lib\libc.a(doprnt_cdgGnopuxX.eo)
                0x9d000000                _vfprintf_cdgGnopuxX
                0x9d000000                _vfprintf_cdnopuxX

.text.body      0x9d001c44      0xd30
 .text.body     0x9d001c44      0xd30 build/default/debug/_ext/45544379/md5.o

.text._vfscanf_gG
                0x9d002974      0xb98
 .text._vfscanf_gG
                0x9d002974      0xb98 c:/program files (x86)/microchip/xc32/v2.15/bin/bin/../../lib/gcc/pic32mx/4.8.3/../../../../pic32mx/lib\libc.a(doscan_gG.eo)
                0x9d002974                _vfscanf_gG

.text.print_value
                0x9d00350c      0x67c
 .text.print_value
                0x9d00350c      0x67c build/default/debug/_ext/45544379/cJSON.o

.text.Tx_Tasks  0x9d003b88      0x4d8
 .text.Tx_Tasks
                0x9d003b88      0x4d8 build/default/debug/_ext/1360937237/TxThread.o
                0x9d003b88                Tx_Tasks

.text.dp32mul   0x9d004060      0x4b8
 .text.dp32mul  0x9d004060      0x4b8 c:/program files (x86)/microchip/xc32/v2.15/bin/bin/../../lib/gcc/pic32mx/4.8.3/../../../../pic32mx/lib\libm.a(dp32div.o)
                0x9d004060                dpdiv
                0x9d004060                __divdf3

.text           0x9d004518      0x8bc
 .text          0x9d004518      0x464 c:/program files (x86)/microchip/xc32/v2.15/bin/bin/../../lib/gcc/pic32mx/4.8.3\libgcc.a(_umoddi3.o)
                0x9d004518                __umoddi3
 .text          0x9d00497c      0x458 c:/program files (x86)/microchip/xc32/v2.15/bin/bin/../../lib/gcc/pic32mx/4.8.3\libgcc.a(_udivdi3.o)
                0x9d00497c                __udivdi3

.text           0x9d004dd4      0x454
 .text          0x9d004dd4      0x454 build/default/debug/_ext/12131622/port_asm.o
                0x9d004dd4                vPortTickInterruptHandler
                0x9d004f80                vPortStartFirstTask
                0x9d005048                vPortYieldISR

.text.dp32subadd
                0x9d005228      0x430
 .text.dp32subadd
                0x9d005228      0x430 c:/program files (x86)/microchip/xc32/v2.15/bin/bin/../../lib/gcc/pic32mx/4.8.3/../../../../pic32mx/lib\libm.a(dp32subadd.o)
                0x9d005228                dpsub
                0x9d005228                __subdf3
                0x9d005230                __adddf3
                0x9d005230                dpadd

.text.__strtod  0x9d005658      0x3d0
 .text.__strtod
                0x9d005658      0x3d0 c:/program files (x86)/microchip/xc32/v2.15/bin/bin/../../lib/gcc/pic32mx/4.8.3/../../../../pic32mx/lib\libm.a(__strtod.o)
                0x9d005658                __strtod

.dinit          0x9d005a28      0x380
 .dinit         0x9d005a28      0x380 data_init

.text.__strtof  0x9d005da8      0x358
 .text.__strtof
                0x9d005da8      0x358 c:/program files (x86)/microchip/xc32/v2.15/bin/bin/../../lib/gcc/pic32mx/4.8.3/../../../../pic32mx/lib\libm.a(__strtof.o)
                0x9d005da8                __strtof

.text.dp32mul   0x9d006100      0x32c
 .text.dp32mul  0x9d006100      0x32c c:/program files (x86)/microchip/xc32/v2.15/bin/bin/../../lib/gcc/pic32mx/4.8.3/../../../../pic32mx/lib\libm.a(dp32mul.o)
                0x9d006100                __muldf3
                0x9d006100                dpmul

.text.print_string_ptr
                0x9d00642c      0x2a8
 .text.print_string_ptr
                0x9d00642c      0x2a8 build/default/debug/_ext/45544379/cJSON.o

.text.fpsubadd  0x9d0066d4      0x278
 .text.fpsubadd
                0x9d0066d4      0x278 c:/program files (x86)/microchip/xc32/v2.15/bin/bin/../../lib/gcc/pic32mx/4.8.3/../../../../pic32mx/lib\libm.a(fp32subadd.o)
                0x9d0066d4                __subsf3
                0x9d0066d4                fpsub
                0x9d0066dc                __addsf3
                0x9d0066dc                fpadd

.text.prvTimerTask
                0x9d00694c      0x270
 .text.prvTimerTask
                0x9d00694c      0x270 build/default/debug/_ext/1128951024/timers.o

.text.scale     0x9d006bbc      0x23c
 .text.scale    0x9d006bbc      0x23c c:/program files (x86)/microchip/xc32/v2.15/bin/bin/../../lib/gcc/pic32mx/4.8.3/../../../../pic32mx/lib\libc.a(doprnt_cdgGnopuxX.eo)

.text.fp32div   0x9d006df8      0x230
 .text.fp32div  0x9d006df8      0x230 c:/program files (x86)/microchip/xc32/v2.15/bin/bin/../../lib/gcc/pic32mx/4.8.3/../../../../pic32mx/lib\libm.a(fp32div.o)
                0x9d006df8                fpdiv
                0x9d006df8                __divsf3

.text.xQueueGenericSend
                0x9d007028      0x20c
 .text.xQueueGenericSend
                0x9d007028      0x20c build/default/debug/_ext/1128951024/queue.o
                0x9d007028                xQueueGenericSend

.text.fround    0x9d007234      0x1cc
 .text.fround   0x9d007234      0x1cc c:/program files (x86)/microchip/xc32/v2.15/bin/bin/../../lib/gcc/pic32mx/4.8.3/../../../../pic32mx/lib\libc.a(doprnt_cdgGnopuxX.eo)

.text.xQueueReceive
                0x9d007400      0x1c0
 .text.xQueueReceive
                0x9d007400      0x1c0 build/default/debug/_ext/1128951024/queue.o
                0x9d007400                xQueueReceive

.text.fp32mul   0x9d0075c0      0x1bc
 .text.fp32mul  0x9d0075c0      0x1bc c:/program files (x86)/microchip/xc32/v2.15/bin/bin/../../lib/gcc/pic32mx/4.8.3/../../../../pic32mx/lib\libm.a(fp32mul.o)
                0x9d0075c0                __mulsf3
                0x9d0075c0                fpmul

.text.SYS_Initialize
                0x9d00777c      0x1b8
 .text.SYS_Initialize
                0x9d00777c      0x1b8 build/default/debug/_ext/1688732426/system_init.o
                0x9d00777c                SYS_Initialize

.DrvAdc_vector_text
                0x9d007934      0x1b4
 .DrvAdc_vector_text
                0x9d007934      0x1b4 build/default/debug/_ext/1688732426/system_interrupt_a.o

.DrvTmrInstance0_vector_text
                0x9d007ae8      0x1b4
 .DrvTmrInstance0_vector_text
                0x9d007ae8      0x1b4 build/default/debug/_ext/1688732426/system_interrupt_a.o

.DrvTmrInstance1_vector_text
                0x9d007c9c      0x1b4
 .DrvTmrInstance1_vector_text
                0x9d007c9c      0x1b4 build/default/debug/_ext/1688732426/system_interrupt_a.o

.DrvUsartInstance0_vector_text
                0x9d007e50      0x1b4
 .DrvUsartInstance0_vector_text
                0x9d007e50      0x1b4 build/default/debug/_ext/1688732426/system_interrupt_a.o

.DrvUsartInstance1_vector_text
                0x9d008004      0x1b4
 .DrvUsartInstance1_vector_text
                0x9d008004      0x1b4 build/default/debug/_ext/1688732426/system_interrupt_a.o

.DrvUsartInstance2_vector_text
                0x9d0081b8      0x1b4
 .DrvUsartInstance2_vector_text
                0x9d0081b8      0x1b4 build/default/debug/_ext/1688732426/system_interrupt_a.o

.DrvUsartInstance3_vector_text
                0x9d00836c      0x1b4
 .DrvUsartInstance3_vector_text
                0x9d00836c      0x1b4 build/default/debug/_ext/1688732426/system_interrupt_a.o

.text.pvPortMalloc
                0x9d008520      0x1ac
 .text.pvPortMalloc
                0x9d008520      0x1ac build/default/debug/_ext/1856876499/heap_1.o
                0x9d008520                pvPortMalloc

.text.__ldexp   0x9d0086cc      0x1a8
 .text.__ldexp  0x9d0086cc      0x1a8 c:/program files (x86)/microchip/xc32/v2.15/bin/bin/../../lib/gcc/pic32mx/4.8.3/../../../../pic32mx/lib\libe.a(_ldexp.o)
                0x9d0086cc                __ldexp

.text.IntHandlerDrvUsartInstance1
                0x9d008874      0x19c
 .text.IntHandlerDrvUsartInstance1
                0x9d008874      0x19c build/default/debug/_ext/1688732426/system_interrupt.o
                0x9d008874                IntHandlerDrvUsartInstance1

.text.IntHandlerDrvUsartInstance3
                0x9d008a10      0x19c
 .text.IntHandlerDrvUsartInstance3
                0x9d008a10      0x19c build/default/debug/_ext/1688732426/system_interrupt.o
                0x9d008a10                IntHandlerDrvUsartInstance3

.text.DRV_USART0_Initialize
                0x9d008bac      0x18c
 .text.DRV_USART0_Initialize
                0x9d008bac      0x18c build/default/debug/_ext/327000265/drv_usart_static.o
                0x9d008bac                DRV_USART0_Initialize

.text.DRV_USART1_Initialize
                0x9d008d38      0x18c
 .text.DRV_USART1_Initialize
                0x9d008d38      0x18c build/default/debug/_ext/327000265/drv_usart_static.o
                0x9d008d38                DRV_USART1_Initialize

.text.DRV_USART2_Initialize
                0x9d008ec4      0x18c
 .text.DRV_USART2_Initialize
                0x9d008ec4      0x18c build/default/debug/_ext/327000265/drv_usart_static.o
                0x9d008ec4                DRV_USART2_Initialize

.text.DRV_USART3_Initialize
                0x9d009050      0x18c
 .text.DRV_USART3_Initialize
                0x9d009050      0x18c build/default/debug/_ext/327000265/drv_usart_static.o
                0x9d009050                DRV_USART3_Initialize

.text.sendRequest2
                0x9d0091dc      0x188
 .text.sendRequest2
                0x9d0091dc      0x188 build/default/debug/_ext/45544379/JSON.o
                0x9d0091dc                sendRequest2

.text.MD5_Final
                0x9d009364      0x188
 .text.MD5_Final
                0x9d009364      0x188 build/default/debug/_ext/45544379/md5.o
                0x9d009364                MD5_Final

.text._filbuf   0x9d0094ec      0x188
 .text._filbuf  0x9d0094ec      0x188 c:/program files (x86)/microchip/xc32/v2.15/bin/bin/../../lib/gcc/pic32mx/4.8.3/../../../../pic32mx/lib\libc.a(filbuf.o)
                0x9d0094ec                _filbuf

.rodata         0x9d009674      0x170
 .rodata        0x9d009674      0x170 build/default/debug/_ext/1360937237/TxThread.o

.text.print     0x9d0097e4      0x168
 .text.print    0x9d0097e4      0x168 build/default/debug/_ext/45544379/cJSON.o

.text           0x9d00994c      0x2d0
 .text          0x9d00994c      0x168 c:/program files (x86)/microchip/xc32/v2.15/bin/bin/../../lib/gcc/pic32mx/4.8.3/../../../../pic32mx/lib\libpic32.a(memcpy.o)
                0x9d00994c                memcpy
 .text          0x9d009ab4      0x168 c:/program files (x86)/microchip/xc32/v2.15/bin/bin/../../lib/gcc/pic32mx/4.8.3/../../../../pic32mx/lib\libpic32.a(strlen.o)
                0x9d009ab4                strlen

.text.xTaskIncrementTick
                0x9d009c1c      0x164
 .text.xTaskIncrementTick
                0x9d009c1c      0x164 build/default/debug/_ext/1128951024/tasks.o
                0x9d009c1c                xTaskIncrementTick

.rodata         0x9d009d80      0x160
 .rodata        0x9d009d80      0x160 c:/program files (x86)/microchip/xc32/v2.15/bin/bin/../../lib/gcc/pic32mx/4.8.3/../../../../pic32mx/lib\libc.a(ldpowers.o)
                0x9d009d80                _npowers_
                0x9d009e30                _powers_

.text.read      0x9d009ee0      0x158
 .text.read     0x9d009ee0      0x158 c:/program files (x86)/microchip/xc32/v2.15/bin/bin/../../lib/gcc/pic32mx/4.8.3/../../../../pic32mx/lib\libpic32.a(read.o)
                0x9d009ee0                read

.text.ensure    0x9d00a038      0x154
 .text.ensure   0x9d00a038      0x154 build/default/debug/_ext/45544379/cJSON.o

.text.xTaskResumeAll
                0x9d00a18c      0x148
 .text.xTaskResumeAll
                0x9d00a18c      0x148 build/default/debug/_ext/1128951024/tasks.o
                0x9d00a18c                xTaskResumeAll

.text.fputc     0x9d00a2d4      0x144
 .text.fputc    0x9d00a2d4      0x144 c:/program files (x86)/microchip/xc32/v2.15/bin/bin/../../lib/gcc/pic32mx/4.8.3/../../../../pic32mx/lib\libc.a(_fputc_simple.o)
                0x9d00a2d4                fputc

.text.IntHandlerDrvUsartInstance0
                0x9d00a418      0x13c
 .text.IntHandlerDrvUsartInstance0
                0x9d00a418      0x13c build/default/debug/_ext/1688732426/system_interrupt.o
                0x9d00a418                IntHandlerDrvUsartInstance0

.text.prvInitialiseNewTask
                0x9d00a554      0x12c
 .text.prvInitialiseNewTask
                0x9d00a554      0x12c build/default/debug/_ext/1128951024/tasks.o
                0x9d00a554                prvInitialiseNewTask

.text._flsbuf   0x9d00a680      0x12c
 .text._flsbuf  0x9d00a680      0x12c c:/program files (x86)/microchip/xc32/v2.15/bin/bin/../../lib/gcc/pic32mx/4.8.3/../../../../pic32mx/lib\libc.a(_flsbuf_simple.o)
                0x9d00a680                _flsbuf

.text.dpcmp     0x9d00a7ac      0x12c
 .text.dpcmp    0x9d00a7ac      0x12c c:/program files (x86)/microchip/xc32/v2.15/bin/bin/../../lib/gcc/pic32mx/4.8.3/../../../../pic32mx/lib\libm.a(dpcmp.o)
                0x9d00a7ac                __ltdf2
                0x9d00a7ac                __gedf2
                0x9d00a7ac                dpcmp
                0x9d00a7ac                __ledf2
                0x9d00a7ac                __nedf2
                0x9d00a7ac                __eqdf2
                0x9d00a7ac                __gtdf2

.rodata         0x9d00a8d8      0x128
 .rodata        0x9d00a8d8      0x128 build/default/debug/_ext/1688732426/system_exceptions.o

.text.MD5_Update
                0x9d00aa00      0x108
 .text.MD5_Update
                0x9d00aa00      0x108 build/default/debug/_ext/45544379/md5.o
                0x9d00aa00                MD5_Update

.text.DRV_ADC_Initialize
                0x9d00ab08      0x104
 .text.DRV_ADC_Initialize
                0x9d00ab08      0x104 build/default/debug/_ext/1361460060/drv_adc_static.o
                0x9d00ab08                DRV_ADC_Initialize

.text.prvAddNewTaskToReadyList
                0x9d00ac0c      0x104
 .text.prvAddNewTaskToReadyList
                0x9d00ac0c      0x104 build/default/debug/_ext/1128951024/tasks.o
                0x9d00ac0c                prvAddNewTaskToReadyList

.text.prvSampleTimeNow
                0x9d00ad10      0x104
 .text.prvSampleTimeNow
                0x9d00ad10      0x104 build/default/debug/_ext/1128951024/timers.o

.rodata         0x9d00ae14      0x104
 .rodata        0x9d00ae14      0x104 c:/program files (x86)/microchip/xc32/v2.15/bin/bin/../../lib/gcc/pic32mx/4.8.3/../../../../pic32mx/lib\libc.a(ctype.o)
                0x9d00ae14                _ctype

.text.fgetc     0x9d00af18      0x104
 .text.fgetc    0x9d00af18      0x104 c:/program files (x86)/microchip/xc32/v2.15/bin/bin/../../lib/gcc/pic32mx/4.8.3/../../../../pic32mx/lib\libc.a(fgetc.o)
                0x9d00af18                fgetc

.text.__ldexpf  0x9d00b01c      0x104
 .text.__ldexpf
                0x9d00b01c      0x104 c:/program files (x86)/microchip/xc32/v2.15/bin/bin/../../lib/gcc/pic32mx/4.8.3/../../../../pic32mx/lib\libe.a(_ldexpf.o)
                0x9d00b01c                __ldexpf

.text.prvUnlockQueue
                0x9d00b120      0x100
 .text.prvUnlockQueue
                0x9d00b120      0x100 build/default/debug/_ext/1128951024/queue.o

.text.dptofp    0x9d00b220      0x100
 .text.dptofp   0x9d00b220      0x100 c:/program files (x86)/microchip/xc32/v2.15/bin/bin/../../lib/gcc/pic32mx/4.8.3/../../../../pic32mx/lib\libm.a(dptofp.o)
                0x9d00b220                __truncdfsf2
                0x9d00b220                dptofp

.text.sendRequest3
                0x9d00b320       0xf8
 .text.sendRequest3
                0x9d00b320       0xf8 build/default/debug/_ext/45544379/JSON.o
                0x9d00b320                sendRequest3

.text.xTaskPriorityDisinherit
                0x9d00b418       0xf8
 .text.xTaskPriorityDisinherit
                0x9d00b418       0xf8 build/default/debug/_ext/1128951024/tasks.o
                0x9d00b418                xTaskPriorityDisinherit

.rodata         0x9d00b510       0xf8
 .rodata        0x9d00b510       0xf8 c:/program files (x86)/microchip/xc32/v2.15/bin/bin/../../lib/gcc/pic32mx/4.8.3/../../../../pic32mx/lib\libc.a(doprnt_cdgGnopuxX.eo)

.text.prvCopyDataToQueue
                0x9d00b608       0xf4
 .text.prvCopyDataToQueue
                0x9d00b608       0xf4 build/default/debug/_ext/1128951024/queue.o

.text.xQueueGenericSendFromISR
                0x9d00b6fc       0xf0
 .text.xQueueGenericSendFromISR
                0x9d00b6fc       0xf0 build/default/debug/_ext/1128951024/queue.o
                0x9d00b6fc                xQueueGenericSendFromISR

.text.APP_Tasks
                0x9d00b7ec       0xe8
 .text.APP_Tasks
                0x9d00b7ec       0xe8 build/default/debug/_ext/1360937237/app.o
                0x9d00b7ec                APP_Tasks

.text.__fixdfdi
                0x9d00b8d4       0xe8
 .text.__fixdfdi
                0x9d00b8d4       0xe8 c:/program files (x86)/microchip/xc32/v2.15/bin/bin/../../lib/gcc/pic32mx/4.8.3/../../../../pic32mx/lib\libe.a(_fixdfdi.o)
                0x9d00b8d4                __fixdfdi

.text.add_item_to_object
                0x9d00b9bc       0xe4
 .text.add_item_to_object
                0x9d00b9bc       0xe4 build/default/debug/_ext/45544379/cJSON.o

.text.prvAddCurrentTaskToDelayedList
                0x9d00baa0       0xe4
 .text.prvAddCurrentTaskToDelayedList
                0x9d00baa0       0xe4 build/default/debug/_ext/1128951024/tasks.o
                0x9d00baa0                prvAddCurrentTaskToDelayedList

.text.SYS_DEVCON_PerformanceConfig
                0x9d00bb84       0xe0
 .text.SYS_DEVCON_PerformanceConfig
                0x9d00bb84       0xe0 build/default/debug/_ext/340578644/sys_devcon_pic32mx.o
                0x9d00bb84                SYS_DEVCON_PerformanceConfig

.text.SYS_Tasks
                0x9d00bc64       0xe0
 .text.SYS_Tasks
                0x9d00bc64       0xe0 build/default/debug/_ext/1688732426/system_tasks.o
                0x9d00bc64                SYS_Tasks

.text.xQueueReceiveFromISR
                0x9d00bd44       0xe0
 .text.xQueueReceiveFromISR
                0x9d00bd44       0xe0 build/default/debug/_ext/1128951024/queue.o
                0x9d00bd44                xQueueReceiveFromISR

.text.vTaskSwitchContext
                0x9d00be24       0xe0
 .text.vTaskSwitchContext
                0x9d00be24       0xe0 build/default/debug/_ext/1128951024/tasks.o
                0x9d00be24                vTaskSwitchContext

.text.general_exception
                0x9d00bf04       0xdc
 .text.general_exception
                0x9d00bf04       0xdc c:/program files (x86)/microchip/xc32/v2.15/bin/bin/../../lib/gcc/pic32mx/4.8.3/../../../../pic32mx/lib\libpic32.a(general-exception.o)
                0x9d00bf04                _general_exception_context

.text._mon_putc
                0x9d00bfe0       0xd4
 .text._mon_putc
                0x9d00bfe0       0xd4 c:/program files (x86)/microchip/xc32/v2.15/bin/bin/../../lib/gcc/pic32mx/4.8.3/../../../../pic32mx/lib\libpic32.a(_mon_putc.o)
                0x9d00bfe0                _mon_putc

.text.cJSON_Delete
                0x9d00c0b4       0xc0
 .text.cJSON_Delete
                0x9d00c0b4       0xc0 build/default/debug/_ext/45544379/cJSON.o
                0x9d00c0b4                cJSON_Delete

.text.xQueueGenericReset
                0x9d00c174       0xc0
 .text.xQueueGenericReset
                0x9d00c174       0xc0 build/default/debug/_ext/1128951024/queue.o
                0x9d00c174                xQueueGenericReset

.text.xTaskCreate
                0x9d00c234       0xc0
 .text.xTaskCreate
                0x9d00c234       0xc0 build/default/debug/_ext/1128951024/tasks.o
                0x9d00c234                xTaskCreate

.text.xTaskRemoveFromEventList
                0x9d00c2f4       0xbc
 .text.xTaskRemoveFromEventList
                0x9d00c2f4       0xbc build/default/debug/_ext/1128951024/tasks.o
                0x9d00c2f4                xTaskRemoveFromEventList

.text.IntHandlerDrvAdc
                0x9d00c3b0       0xb4
 .text.IntHandlerDrvAdc
                0x9d00c3b0       0xb4 build/default/debug/_ext/1688732426/system_interrupt.o
                0x9d00c3b0                IntHandlerDrvAdc

.text.fptodp    0x9d00c464       0xac
 .text.fptodp   0x9d00c464       0xac c:/program files (x86)/microchip/xc32/v2.15/bin/bin/../../lib/gcc/pic32mx/4.8.3/../../../../pic32mx/lib\libm.a(fptodp.o)
                0x9d00c464                fptodp
                0x9d00c464                __extendsfdf2

.text.IR_Tasks  0x9d00c510       0xa8
 .text.IR_Tasks
                0x9d00c510       0xa8 build/default/debug/_ext/1360937237/IR.o
                0x9d00c510                IR_Tasks

.text           0x9d00c5b8       0xa8
 .text          0x9d00c5b8       0xa8 c:/program files (x86)/microchip/xc32/v2.15/bin/bin/../../lib/gcc/pic32mx/4.8.3/../../../../pic32mx/lib\libpic32.a(memset.o)
                0x9d00c5b8                memset

.text.range     0x9d00c660       0xa8
 .text.range    0x9d00c660       0xa8 c:/program files (x86)/microchip/xc32/v2.15/bin/bin/../../lib/gcc/pic32mx/4.8.3/../../../../pic32mx/lib\libc.a(doscan_gG.eo)

.text.atoi      0x9d00c708       0xa8
 .text.atoi     0x9d00c708       0xa8 c:/program files (x86)/microchip/xc32/v2.15/bin/bin/../../lib/gcc/pic32mx/4.8.3/../../../../pic32mx/lib\libc.a(atoi.o)
                0x9d00c708                atoi

.text.libm      0x9d00c7b0       0xa8
 .text.libm     0x9d00c7b0       0xa8 c:/program files (x86)/microchip/xc32/v2.15/bin/bin/../../lib/gcc/pic32mx/4.8.3/../../../../pic32mx/lib\libm.a(dpfrexp.o)
                0x9d00c7b0                dpfrexp
                0x9d00c7b0                frexpl
                0x9d00c7b0                frexp

.text.xTaskCheckForTimeOut
                0x9d00c858       0xa4
 .text.xTaskCheckForTimeOut
                0x9d00c858       0xa4 build/default/debug/_ext/1128951024/tasks.o
                0x9d00c858                xTaskCheckForTimeOut

.text.SYS_PORTS_Initialize
                0x9d00c8fc       0xa0
 .text.SYS_PORTS_Initialize
                0x9d00c8fc       0xa0 build/default/debug/_ext/822048611/sys_ports_static.o
                0x9d00c8fc                SYS_PORTS_Initialize

.text.fflush    0x9d00c99c       0xa0
 .text.fflush   0x9d00c99c       0xa0 c:/program files (x86)/microchip/xc32/v2.15/bin/bin/../../lib/gcc/pic32mx/4.8.3/../../../../pic32mx/lib\libc.a(fflush.o)
                0x9d00c99c                fflush

.text.cJSON_CreateNumber
                0x9d00ca3c       0x9c
 .text.cJSON_CreateNumber
                0x9d00ca3c       0x9c build/default/debug/_ext/45544379/cJSON.o
                0x9d00ca3c                cJSON_CreateNumber

.text.fpcmp     0x9d00cad8       0x9c
 .text.fpcmp    0x9d00cad8       0x9c c:/program files (x86)/microchip/xc32/v2.15/bin/bin/../../lib/gcc/pic32mx/4.8.3/../../../../pic32mx/lib\libm.a(fpcmp.o)
                0x9d00cad8                __eqsf2
                0x9d00cad8                __lesf2
                0x9d00cad8                __gtsf2
                0x9d00cad8                __nesf2
                0x9d00cad8                fpcmp
                0x9d00cad8                __gesf2
                0x9d00cad8                __ltsf2

.text.write     0x9d00cb74       0x9c
 .text.write    0x9d00cb74       0x9c c:/program files (x86)/microchip/xc32/v2.15/bin/bin/../../lib/gcc/pic32mx/4.8.3/../../../../pic32mx/lib\libpic32.a(write.o)
                0x9d00cb74                write

.text.xQueueGenericCreate
                0x9d00cc10       0x94
 .text.xQueueGenericCreate
                0x9d00cc10       0x94 build/default/debug/_ext/1128951024/queue.o
                0x9d00cc10                xQueueGenericCreate

.text.xTimerGenericCommand
                0x9d00cca4       0x94
 .text.xTimerGenericCommand
                0x9d00cca4       0x94 build/default/debug/_ext/1128951024/timers.o
                0x9d00cca4                xTimerGenericCommand

.text.prvInitialiseTaskLists
                0x9d00cd38       0x90
 .text.prvInitialiseTaskLists
                0x9d00cd38       0x90 build/default/debug/_ext/1128951024/tasks.o
                0x9d00cd38                prvInitialiseTaskLists

.text.vQueueWaitForMessageRestricted
                0x9d00cdc8       0x8c
 .text.vQueueWaitForMessageRestricted
                0x9d00cdc8       0x8c build/default/debug/_ext/1128951024/queue.o
                0x9d00cdc8                vQueueWaitForMessageRestricted

.text.vTaskStartScheduler
                0x9d00ce54       0x8c
 .text.vTaskStartScheduler
                0x9d00ce54       0x8c build/default/debug/_ext/1128951024/tasks.o
                0x9d00ce54                vTaskStartScheduler

.text.dptoul    0x9d00cee0       0x8c
 .text.dptoul   0x9d00cee0       0x8c c:/program files (x86)/microchip/xc32/v2.15/bin/bin/../../lib/gcc/pic32mx/4.8.3/../../../../pic32mx/lib\libm.a(dptoul.o)
                0x9d00cee0                dptoul
                0x9d00cee0                __fixunsdfsi

.text.__orderdf2
                0x9d00cf6c       0x8c
 .text.__orderdf2
                0x9d00cf6c       0x8c c:/program files (x86)/microchip/xc32/v2.15/bin/bin/../../lib/gcc/pic32mx/4.8.3/../../../../pic32mx/lib\libe.a(_orderdf2.o)
                0x9d00cf6c                __orderdf2

.text.xTimerCreate
                0x9d00cff8       0x88
 .text.xTimerCreate
                0x9d00cff8       0x88 build/default/debug/_ext/1128951024/timers.o
                0x9d00cff8                xTimerCreate

.text.DRV_USART_Initialize
                0x9d00d080       0x84
 .text.DRV_USART_Initialize
                0x9d00d080       0x84 build/default/debug/_ext/327000265/drv_usart_mapping.o
                0x9d00d080                DRV_USART_Initialize

.text           0x9d00d104       0x84
 .text          0x9d00d104       0x84 c:/program files (x86)/microchip/xc32/v2.15/bin/bin/../../lib/gcc/pic32mx/4.8.3/../../../../pic32mx/lib\libpic32.a(pic32_data_init.o)
                0x9d00d104                __pic32_data_init

.text.prvCheckTasksWaitingTermination
                0x9d00d188       0x80
 .text.prvCheckTasksWaitingTermination
                0x9d00d188       0x80 build/default/debug/_ext/1128951024/tasks.o
                0x9d00d188                prvCheckTasksWaitingTermination

.text.fptoli    0x9d00d208       0x80
 .text.fptoli   0x9d00d208       0x80 c:/program files (x86)/microchip/xc32/v2.15/bin/bin/../../lib/gcc/pic32mx/4.8.3/../../../../pic32mx/lib\libm.a(fptoli.o)
                0x9d00d208                fptoli
                0x9d00d208                fptosi
                0x9d00d208                __fixsfsi

.text.__fixunsdfdi
                0x9d00d288       0x80
 .text.__fixunsdfdi
                0x9d00d288       0x80 c:/program files (x86)/microchip/xc32/v2.15/bin/bin/../../lib/gcc/pic32mx/4.8.3/../../../../pic32mx/lib\libe.a(_fixunsdfdi.o)
                0x9d00d288                __fixunsdfdi

.text.DRV_TMR0_Initialize
                0x9d00d308       0x7c
 .text.DRV_TMR0_Initialize
                0x9d00d308       0x7c build/default/debug/_ext/1407244131/drv_tmr_static.o
                0x9d00d308                DRV_TMR0_Initialize

.text.prvInsertBlockIntoFreeList
                0x9d00d384       0x7c
 .text.prvInsertBlockIntoFreeList
                0x9d00d384       0x7c build/default/debug/_ext/1856876499/heap_1.o

.text.DISTANCE_Tasks
                0x9d00d400       0x78
 .text.DISTANCE_Tasks
                0x9d00d400       0x78 build/default/debug/_ext/1360937237/Distance.o
                0x9d00d400                DISTANCE_Tasks

.text.litodp    0x9d00d478       0x78
 .text.litodp   0x9d00d478       0x78 c:/program files (x86)/microchip/xc32/v2.15/bin/bin/../../lib/gcc/pic32mx/4.8.3/../../../../pic32mx/lib\libm.a(litodp.o)
                0x9d00d478                __floatsidf
                0x9d00d478                litodp

.text.DRV_TMR1_Initialize
                0x9d00d4f0       0x74
 .text.DRV_TMR1_Initialize
                0x9d00d4f0       0x74 build/default/debug/_ext/1407244131/drv_tmr_static.o
                0x9d00d4f0                DRV_TMR1_Initialize

.text.DRV_USART_TasksTransmit
                0x9d00d564       0x74
 .text.DRV_USART_TasksTransmit
                0x9d00d564       0x74 build/default/debug/_ext/327000265/drv_usart_mapping.o
                0x9d00d564                DRV_USART_TasksTransmit

.text.DRV_USART_TasksReceive
                0x9d00d5d8       0x74
 .text.DRV_USART_TasksReceive
                0x9d00d5d8       0x74 build/default/debug/_ext/327000265/drv_usart_mapping.o
                0x9d00d5d8                DRV_USART_TasksReceive

.text.DRV_USART_TasksError
                0x9d00d64c       0x74
 .text.DRV_USART_TasksError
                0x9d00d64c       0x74 build/default/debug/_ext/327000265/drv_usart_mapping.o
                0x9d00d64c                DRV_USART_TasksError

.text.cJSON_strdup
                0x9d00d6c0       0x74
 .text.cJSON_strdup
                0x9d00d6c0       0x74 build/default/debug/_ext/45544379/cJSON.o

.text.cJSON_AddNumberToObject
                0x9d00d734       0x74
 .text.cJSON_AddNumberToObject
                0x9d00d734       0x74 build/default/debug/_ext/45544379/cJSON.o
                0x9d00d734                cJSON_AddNumberToObject

.text.cJSON_CreateString
                0x9d00d7a8       0x74
 .text.cJSON_CreateString
                0x9d00d7a8       0x74 build/default/debug/_ext/45544379/cJSON.o
                0x9d00d7a8                cJSON_CreateString

.text.cJSON_AddStringToObject
                0x9d00d81c       0x74
 .text.cJSON_AddStringToObject
                0x9d00d81c       0x74 build/default/debug/_ext/45544379/cJSON.o
                0x9d00d81c                cJSON_AddStringToObject

.text.vPortFree
                0x9d00d890       0x74
 .text.vPortFree
                0x9d00d890       0x74 build/default/debug/_ext/1856876499/heap_1.o
                0x9d00d890                vPortFree

.text.prvInsertTimerInActiveList
                0x9d00d904       0x74
 .text.prvInsertTimerInActiveList
                0x9d00d904       0x74 build/default/debug/_ext/1128951024/timers.o

.text.prvCheckForValidListAndQueue
                0x9d00d978       0x74
 .text.prvCheckForValidListAndQueue
                0x9d00d978       0x74 build/default/debug/_ext/1128951024/timers.o

.text.ungetc    0x9d00d9ec       0x74
 .text.ungetc   0x9d00d9ec       0x74 c:/program files (x86)/microchip/xc32/v2.15/bin/bin/../../lib/gcc/pic32mx/4.8.3/../../../../pic32mx/lib\libc.a(ungetc.o)
                0x9d00d9ec                ungetc

.text.vApplicationSetupTickTimerInterrupt
                0x9d00da60       0x6c
 .text.vApplicationSetupTickTimerInterrupt
                0x9d00da60       0x6c build/default/debug/_ext/12131622/port.o
                0x9d00da60                vApplicationSetupTickTimerInterrupt

.text._sprintf_cdgGnopuxX
                0x9d00dacc       0x68
 .text._sprintf_cdgGnopuxX
                0x9d00dacc       0x68 c:/program files (x86)/microchip/xc32/v2.15/bin/bin/../../lib/gcc/pic32mx/4.8.3/../../../../pic32mx/lib\libc.a(sprintf_cdgGnopuxX.eo)
                0x9d00dacc                _sprintf_cdgGnopuxX
                0x9d00dacc                _sprintf_cdnopuxX

.text           0x9d00db34       0x64
 .text          0x9d00db34       0x64 c:/program files (x86)/microchip/xc32/v2.15/bin/bin/../../lib/gcc/pic32mx/4.8.3\libgcc.a(_floatundidf.o)
                0x9d00db34                __floatundidf

.text.vListInsert
                0x9d00db98       0x60
 .text.vListInsert
                0x9d00db98       0x60 build/default/debug/_ext/1128951024/list.o
                0x9d00db98                vListInsert

.text.vTaskExitCritical
                0x9d00dbf8       0x60
 .text.vTaskExitCritical
                0x9d00dbf8       0x60 build/default/debug/_ext/1128951024/tasks.o
                0x9d00dbf8                vTaskExitCritical

.text.wspace    0x9d00dc58       0x60
 .text.wspace   0x9d00dc58       0x60 c:/program files (x86)/microchip/xc32/v2.15/bin/bin/../../lib/gcc/pic32mx/4.8.3/../../../../pic32mx/lib\libc.a(doscan_gG.eo)

.text.sitofp    0x9d00dcb8       0x60
 .text.sitofp   0x9d00dcb8       0x60 c:/program files (x86)/microchip/xc32/v2.15/bin/bin/../../lib/gcc/pic32mx/4.8.3/../../../../pic32mx/lib\libm.a(sitofp.o)
                0x9d00dcb8                sitofp
                0x9d00dcb8                litofp
                0x9d00dcb8                __floatsisf

.text.xPortStartScheduler
                0x9d00dd18       0x5c
 .text.xPortStartScheduler
                0x9d00dd18       0x5c build/default/debug/_ext/12131622/port.o
                0x9d00dd18                xPortStartScheduler

.text.xTimerCreateTimerTask
                0x9d00dd74       0x5c
 .text.xTimerCreateTimerTask
                0x9d00dd74       0x5c build/default/debug/_ext/1128951024/timers.o
                0x9d00dd74                xTimerCreateTimerTask

.text.SYS_DEVCON_SystemUnlock
                0x9d00ddd0       0x58
 .text.SYS_DEVCON_SystemUnlock
                0x9d00ddd0       0x58 build/default/debug/_ext/340578644/sys_devcon.o
                0x9d00ddd0                SYS_DEVCON_SystemUnlock

.text.MD5       0x9d00de28       0x58
 .text.MD5      0x9d00de28       0x58 build/default/debug/_ext/45544379/JSON.o
                0x9d00de28                MD5

.text.add_item_to_array
                0x9d00de80       0x58
 .text.add_item_to_array
                0x9d00de80       0x58 build/default/debug/_ext/45544379/cJSON.o

.text.xQueueCreateMutex
                0x9d00ded8       0x58
 .text.xQueueCreateMutex
                0x9d00ded8       0x58 build/default/debug/_ext/1128951024/queue.o
                0x9d00ded8                xQueueCreateMutex

.text.vTaskDelay
                0x9d00df30       0x58
 .text.vTaskDelay
                0x9d00df30       0x58 build/default/debug/_ext/1128951024/tasks.o
                0x9d00df30                vTaskDelay

.text.SYS_INT_SourceDisable
                0x9d00df88       0x54
 .text.SYS_INT_SourceDisable
                0x9d00df88       0x54 build/default/debug/_ext/122796885/sys_int_pic32.o
                0x9d00df88                SYS_INT_SourceDisable

.text.pxPortInitialiseStack
                0x9d00dfdc       0x54
 .text.pxPortInitialiseStack
                0x9d00dfdc       0x54 build/default/debug/_ext/12131622/port.o
                0x9d00dfdc                pxPortInitialiseStack

.text.vPortIncrementTick
                0x9d00e030       0x54
 .text.vPortIncrementTick
                0x9d00e030       0x54 build/default/debug/_ext/12131622/port.o
                0x9d00e030                vPortIncrementTick

.text.main_entry
                0x9d00e084       0x54
 .text.main_entry
                0x9d00e084       0x54 C:\Users\MOQIZH~1\AppData\Local\Temp\ccYY4veD.o
                0x9d00e0b8                __crt0_exit

.text._sscanf_gG
                0x9d00e0d8       0x54
 .text._sscanf_gG
                0x9d00e0d8       0x54 c:/program files (x86)/microchip/xc32/v2.15/bin/bin/../../lib/gcc/pic32mx/4.8.3/../../../../pic32mx/lib\libc.a(sscanf_gG.eo)
                0x9d00e0d8                _sscanf_gG

.text.int_to_int
                0x9d00e12c       0x50
 .text.int_to_int
                0x9d00e12c       0x50 build/default/debug/_ext/45544379/JSON.o
                0x9d00e12c                int_to_int

.text.prvCopyDataFromQueue
                0x9d00e17c       0x50
 .text.prvCopyDataFromQueue
                0x9d00e17c       0x50 build/default/debug/_ext/1128951024/queue.o

.text.DRV_USART1_TasksTransmit
                0x9d00e1cc       0x4c
 .text.DRV_USART1_TasksTransmit
                0x9d00e1cc       0x4c build/default/debug/_ext/327000265/drv_usart_static.o
                0x9d00e1cc                DRV_USART1_TasksTransmit

.text.DRV_USART2_TasksTransmit
                0x9d00e218       0x4c
 .text.DRV_USART2_TasksTransmit
                0x9d00e218       0x4c build/default/debug/_ext/327000265/drv_usart_static.o
                0x9d00e218                DRV_USART2_TasksTransmit

.text.DRV_USART3_TasksTransmit
                0x9d00e264       0x4c
 .text.DRV_USART3_TasksTransmit
                0x9d00e264       0x4c build/default/debug/_ext/327000265/drv_usart_static.o
                0x9d00e264                DRV_USART3_TasksTransmit

.text.vTimerCallback
                0x9d00e2b0       0x4c
 .text.vTimerCallback
                0x9d00e2b0       0x4c build/default/debug/_ext/1360937237/IR.o
                0x9d00e2b0                vTimerCallback

.text.IR_Initialize
                0x9d00e2fc       0x4c
 .text.IR_Initialize
                0x9d00e2fc       0x4c build/default/debug/_ext/1360937237/IR.o
                0x9d00e2fc                IR_Initialize

.text.update_offset
                0x9d00e348       0x4c
 .text.update_offset
                0x9d00e348       0x4c build/default/debug/_ext/45544379/cJSON.o

.rodata         0x9d00e394       0x4c
 .rodata        0x9d00e394       0x4c build/default/debug/_ext/45544379/cJSON.o

.text.uxListRemove
                0x9d00e3e0       0x4c
 .text.uxListRemove
                0x9d00e3e0       0x4c build/default/debug/_ext/1128951024/list.o
                0x9d00e3e0                uxListRemove

.text           0x9d00e42c       0x4c
 .text          0x9d00e42c       0x4c c:/program files (x86)/microchip/xc32/v2.15/bin/bin/../../lib/gcc/pic32mx/4.8.3\libgcc.a(floatunsisf.o)
                0x9d00e42c                __floatunsisf

.text.DRV_USART0_TasksTransmit
                0x9d00e478       0x48
 .text.DRV_USART0_TasksTransmit
                0x9d00e478       0x48 build/default/debug/_ext/327000265/drv_usart_static.o
                0x9d00e478                DRV_USART0_TasksTransmit

.text.SYS_DEVCON_SystemLock
                0x9d00e4c0       0x48
 .text.SYS_DEVCON_SystemLock
                0x9d00e4c0       0x48 build/default/debug/_ext/340578644/sys_devcon.o
                0x9d00e4c0                SYS_DEVCON_SystemLock

.text.APP_Initialize
                0x9d00e508       0x48
 .text.APP_Initialize
                0x9d00e508       0x48 build/default/debug/_ext/1360937237/app.o
                0x9d00e508                APP_Initialize

.text.vTaskEnterCritical
                0x9d00e550       0x48
 .text.vTaskEnterCritical
                0x9d00e550       0x48 build/default/debug/_ext/1128951024/tasks.o
                0x9d00e550                vTaskEnterCritical

.text.vTaskPlaceOnEventListRestricted
                0x9d00e598       0x48
 .text.vTaskPlaceOnEventListRestricted
                0x9d00e598       0x48 build/default/debug/_ext/1128951024/tasks.o
                0x9d00e598                vTaskPlaceOnEventListRestricted

.text._bootstrap_exception_handler
                0x9d00e5e0       0x48
 .text._bootstrap_exception_handler
                0x9d00e5e0       0x48 c:/program files (x86)/microchip/xc32/v2.15/bin/bin/../../lib/gcc/pic32mx/4.8.3/../../../../pic32mx/lib\libpic32.a(default-bootstrap-exception-handler.o)
                0x9d00e5e0                _bootstrap_exception_handler

.vector_default
                0x9d00e628       0x48
 .vector_default
                0x9d00e628       0x48 c:/program files (x86)/microchip/xc32/v2.15/bin/bin/../../lib/gcc/pic32mx/4.8.3/../../../../pic32mx/lib\libpic32.a(defaultinterrupt.o)
                0x9d00e628                _DefaultInterrupt

.rodata         0x9d00e670       0x48
 .rodata        0x9d00e670       0x48 c:/program files (x86)/microchip/xc32/v2.15/bin/bin/../../lib/gcc/pic32mx/4.8.3/../../../../pic32mx/lib\libm.a(__strtod.o)

.text.SYS_CLK_Initialize
                0x9d00e6b8       0x44
 .text.SYS_CLK_Initialize
                0x9d00e6b8       0x44 build/default/debug/_ext/639803181/sys_clk_pic32mx.o
                0x9d00e6b8                SYS_CLK_Initialize

.text._general_exception_handler
                0x9d00e6fc       0x44
 .text._general_exception_handler
                0x9d00e6fc       0x44 build/default/debug/_ext/1688732426/system_exceptions.o
                0x9d00e6fc                _general_exception_handler

.rodata         0x9d00e740       0x44
 .rodata        0x9d00e740       0x44 build/default/debug/_ext/1688732426/system_tasks.o

.text.cJSON_New_Item
                0x9d00e784       0x44
 .text.cJSON_New_Item
                0x9d00e784       0x44 build/default/debug/_ext/45544379/cJSON.o

.text           0x9d00e7c8       0x44
 .text          0x9d00e7c8       0x44 c:/program files (x86)/microchip/xc32/v2.15/bin/bin/../../lib/gcc/pic32mx/4.8.3/../../../../pic32mx/lib\pic32_software_reset.o
                0x9d00e7c8                __pic32_software_reset

.text.strcat    0x9d00e80c       0x44
 .text.strcat   0x9d00e80c       0x44 c:/program files (x86)/microchip/xc32/v2.15/bin/bin/../../lib/gcc/pic32mx/4.8.3/../../../../pic32mx/lib\libc.a(strcat.o)
                0x9d00e80c                strcat

.text           0x9d00e850       0x44
 .text          0x9d00e850       0x44 c:/program files (x86)/microchip/xc32/v2.15/bin/bin/../../lib/gcc/pic32mx/4.8.3\libgcc.a(floatunsidf.o)
                0x9d00e850                __floatunsidf

.text.prvIdleTask
                0x9d00e894       0x40
 .text.prvIdleTask
                0x9d00e894       0x40 build/default/debug/_ext/1128951024/tasks.o
                0x9d00e894                prvIdleTask

.text           0x9d00e8d4       0x80
 .text          0x9d00e8d4       0x40 c:/program files (x86)/microchip/xc32/v2.15/bin/bin/../../lib/gcc/pic32mx/4.8.3\libgcc.a(_lshrdi3.o)
                0x9d00e8d4                __lshrdi3
 .text          0x9d00e914       0x40 c:/program files (x86)/microchip/xc32/v2.15/bin/bin/../../lib/gcc/pic32mx/4.8.3\libgcc.a(_ashldi3.o)
                0x9d00e914                __ashldi3

.text.IntHandlerDrvUsartInstance2
                0x9d00e954       0x3c
 .text.IntHandlerDrvUsartInstance2
                0x9d00e954       0x3c build/default/debug/_ext/1688732426/system_interrupt.o
                0x9d00e954                IntHandlerDrvUsartInstance2

.text.MD5_Init  0x9d00e990       0x3c
 .text.MD5_Init
                0x9d00e990       0x3c build/default/debug/_ext/45544379/md5.o
                0x9d00e990                MD5_Init

.text.OSAL_MUTEX_Create
                0x9d00e9cc       0x3c
 .text.OSAL_MUTEX_Create
                0x9d00e9cc       0x3c build/default/debug/_ext/24337685/osal_freertos.o
                0x9d00e9cc                OSAL_MUTEX_Create

.text.uxPortSetInterruptMaskFromISR
                0x9d00ea08       0x3c
 .text.uxPortSetInterruptMaskFromISR
                0x9d00ea08       0x3c build/default/debug/_ext/12131622/port.o
                0x9d00ea08                uxPortSetInterruptMaskFromISR

.text.prvResetNextTaskUnblockTime
                0x9d00ea44       0x38
 .text.prvResetNextTaskUnblockTime
                0x9d00ea44       0x38 build/default/debug/_ext/1128951024/tasks.o
                0x9d00ea44                prvResetNextTaskUnblockTime

.text.vTaskPlaceOnEventList
                0x9d00ea7c       0x38
 .text.vTaskPlaceOnEventList
                0x9d00ea7c       0x38 build/default/debug/_ext/1128951024/tasks.o
                0x9d00ea7c                vTaskPlaceOnEventList

.text.SendMessageFromADCISR
                0x9d00eab4       0x34
 .text.SendMessageFromADCISR
                0x9d00eab4       0x34 build/default/debug/_ext/45544379/sensor_queue.o
                0x9d00eab4                SendMessageFromADCISR

.text.SendMessageFromISR
                0x9d00eae8       0x34
 .text.SendMessageFromISR
                0x9d00eae8       0x34 build/default/debug/_ext/45544379/sensor_queue.o
                0x9d00eae8                SendMessageFromISR

.text.vListInsertEnd
                0x9d00eb1c       0x34
 .text.vListInsertEnd
                0x9d00eb1c       0x34 build/default/debug/_ext/1128951024/list.o
                0x9d00eb1c                vListInsertEnd

.text.prvIsQueueEmpty
                0x9d00eb50       0x34
 .text.prvIsQueueEmpty
                0x9d00eb50       0x34 build/default/debug/_ext/1128951024/queue.o

.text.DRV_USART1_TasksReceive
                0x9d00eb84       0x30
 .text.DRV_USART1_TasksReceive
                0x9d00eb84       0x30 build/default/debug/_ext/327000265/drv_usart_static.o
                0x9d00eb84                DRV_USART1_TasksReceive

.text.DRV_USART1_TasksError
                0x9d00ebb4       0x30
 .text.DRV_USART1_TasksError
                0x9d00ebb4       0x30 build/default/debug/_ext/327000265/drv_usart_static.o
                0x9d00ebb4                DRV_USART1_TasksError

.text.DRV_USART2_TasksReceive
                0x9d00ebe4       0x30
 .text.DRV_USART2_TasksReceive
                0x9d00ebe4       0x30 build/default/debug/_ext/327000265/drv_usart_static.o
                0x9d00ebe4                DRV_USART2_TasksReceive

.text.DRV_USART2_TasksError
                0x9d00ec14       0x30
 .text.DRV_USART2_TasksError
                0x9d00ec14       0x30 build/default/debug/_ext/327000265/drv_usart_static.o
                0x9d00ec14                DRV_USART2_TasksError

.text.DRV_USART3_TasksReceive
                0x9d00ec44       0x30
 .text.DRV_USART3_TasksReceive
                0x9d00ec44       0x30 build/default/debug/_ext/327000265/drv_usart_static.o
                0x9d00ec44                DRV_USART3_TasksReceive

.text.DRV_USART3_TasksError
                0x9d00ec74       0x30
 .text.DRV_USART3_TasksError
                0x9d00ec74       0x30 build/default/debug/_ext/327000265/drv_usart_static.o
                0x9d00ec74                DRV_USART3_TasksError

.text.SendMessageFromTimer
                0x9d00eca4       0x30
 .text.SendMessageFromTimer
                0x9d00eca4       0x30 build/default/debug/_ext/45544379/sensor_queue.o
                0x9d00eca4                SendMessageFromTimer

.text.SendMessageFromUS
                0x9d00ecd4       0x30
 .text.SendMessageFromUS
                0x9d00ecd4       0x30 build/default/debug/_ext/45544379/sensor_queue.o
                0x9d00ecd4                SendMessageFromUS

.text.prvDeleteTCB
                0x9d00ed04       0x30
 .text.prvDeleteTCB
                0x9d00ed04       0x30 build/default/debug/_ext/1128951024/tasks.o
                0x9d00ed04                prvDeleteTCB

.text.DRV_USART0_TasksReceive
                0x9d00ed34       0x2c
 .text.DRV_USART0_TasksReceive
                0x9d00ed34       0x2c build/default/debug/_ext/327000265/drv_usart_static.o
                0x9d00ed34                DRV_USART0_TasksReceive

.text.DRV_USART0_TasksError
                0x9d00ed60       0x2c
 .text.DRV_USART0_TasksError
                0x9d00ed60       0x2c build/default/debug/_ext/327000265/drv_usart_static.o
                0x9d00ed60                DRV_USART0_TasksError

.text.vTimerCallbackSending
                0x9d00ed8c       0x2c
 .text.vTimerCallbackSending
                0x9d00ed8c       0x2c build/default/debug/_ext/1360937237/app.o
                0x9d00ed8c                vTimerCallbackSending

.text.dbgUARTVal2
                0x9d00edb8       0x2c
 .text.dbgUARTVal2
                0x9d00edb8       0x2c build/default/debug/_ext/45544379/debug.o
                0x9d00edb8                dbgUARTVal2

.rodata         0x9d00ede4       0x2c
 .rodata        0x9d00ede4       0x2c build/default/debug/_ext/45544379/JSON.o

.text.cJSON_CreateObject
                0x9d00ee10       0x2c
 .text.cJSON_CreateObject
                0x9d00ee10       0x2c build/default/debug/_ext/45544379/cJSON.o
                0x9d00ee10                cJSON_CreateObject

.text.ReceiveUART_TRANSMIT_Message
                0x9d00ee3c       0x2c
 .text.ReceiveUART_TRANSMIT_Message
                0x9d00ee3c       0x2c build/default/debug/_ext/45544379/sensor_queue.o
                0x9d00ee3c                ReceiveUART_TRANSMIT_Message

.text.ReceiveMessageIR
                0x9d00ee68       0x2c
 .text.ReceiveMessageIR
                0x9d00ee68       0x2c build/default/debug/_ext/45544379/sensor_queue.o
                0x9d00ee68                ReceiveMessageIR

.text.ReceiveMessageUS
                0x9d00ee94       0x2c
 .text.ReceiveMessageUS
                0x9d00ee94       0x2c build/default/debug/_ext/45544379/sensor_queue.o
                0x9d00ee94                ReceiveMessageUS

.text.ReceiveMessage
                0x9d00eec0       0x2c
 .text.ReceiveMessage
                0x9d00eec0       0x2c build/default/debug/_ext/45544379/sensor_queue.o
                0x9d00eec0                ReceiveMessage

.text.SendUART_TRANSMIT_Message
                0x9d00eeec       0x28
 .text.SendUART_TRANSMIT_Message
                0x9d00eeec       0x28 build/default/debug/_ext/45544379/sensor_queue.o
                0x9d00eeec                SendUART_TRANSMIT_Message

.text.SendTransmit_Message
                0x9d00ef14       0x28
 .text.SendTransmit_Message
                0x9d00ef14       0x28 build/default/debug/_ext/45544379/sensor_queue.o
                0x9d00ef14                SendTransmit_Message

.text.strtod    0x9d00ef3c       0x28
 .text.strtod   0x9d00ef3c       0x28 c:/program files (x86)/microchip/xc32/v2.15/bin/bin/../../lib/gcc/pic32mx/4.8.3/../../../../pic32mx/lib\libc.a(strtod.o)
                0x9d00ef3c                strtod

.text.vApplicationStackOverflowHook
                0x9d00ef64       0x24
 .text.vApplicationStackOverflowHook
                0x9d00ef64       0x24 build/default/debug/_ext/1688732426/rtos_hooks.o
                0x9d00ef64                vApplicationStackOverflowHook

.text.vApplicationMallocFailedHook
                0x9d00ef88       0x24
 .text.vApplicationMallocFailedHook
                0x9d00ef88       0x24 build/default/debug/_ext/1688732426/rtos_hooks.o
                0x9d00ef88                vApplicationMallocFailedHook

.text.dbgOutputVal
                0x9d00efac       0x24
 .text.dbgOutputVal
                0x9d00efac       0x24 build/default/debug/_ext/45544379/debug.o
                0x9d00efac                dbgOutputVal

.text.cJSON_PrintUnformatted
                0x9d00efd0       0x24
 .text.cJSON_PrintUnformatted
                0x9d00efd0       0x24 build/default/debug/_ext/45544379/cJSON.o
                0x9d00efd0                cJSON_PrintUnformatted

.text.createUART_TRANSMIT_Queue
                0x9d00eff4       0x24
 .text.createUART_TRANSMIT_Queue
                0x9d00eff4       0x24 build/default/debug/_ext/45544379/sensor_queue.o
                0x9d00eff4                createUART_TRANSMIT_Queue

.text.createTransmit_Queue
                0x9d00f018       0x24
 .text.createTransmit_Queue
                0x9d00f018       0x24 build/default/debug/_ext/45544379/sensor_queue.o
                0x9d00f018                createTransmit_Queue

.text.createMessageQIR
                0x9d00f03c       0x24
 .text.createMessageQIR
                0x9d00f03c       0x24 build/default/debug/_ext/45544379/sensor_queue.o
                0x9d00f03c                createMessageQIR

.text.createMessageQISR
                0x9d00f060       0x24
 .text.createMessageQISR
                0x9d00f060       0x24 build/default/debug/_ext/45544379/sensor_queue.o
                0x9d00f060                createMessageQISR

.text.createMessageQThread
                0x9d00f084       0x24
 .text.createMessageQThread
                0x9d00f084       0x24 build/default/debug/_ext/45544379/sensor_queue.o
                0x9d00f084                createMessageQThread

.text.createMessageQ
                0x9d00f0a8       0x24
 .text.createMessageQ
                0x9d00f0a8       0x24 build/default/debug/_ext/45544379/sensor_queue.o
                0x9d00f0a8                createMessageQ

.text.ReceiveTransmit_Message
                0x9d00f0cc       0x24
 .text.ReceiveTransmit_Message
                0x9d00f0cc       0x24 build/default/debug/_ext/45544379/sensor_queue.o
                0x9d00f0cc                ReceiveTransmit_Message

.text.prvTaskExitError
                0x9d00f0f0       0x24
 .text.prvTaskExitError
                0x9d00f0f0       0x24 build/default/debug/_ext/12131622/port.o

.text.vListInitialise
                0x9d00f114       0x24
 .text.vListInitialise
                0x9d00f114       0x24 build/default/debug/_ext/1128951024/list.o
                0x9d00f114                vListInitialise

.text.tolower   0x9d00f138       0x24
 .text.tolower  0x9d00f138       0x24 c:/program files (x86)/microchip/xc32/v2.15/bin/bin/../../lib/gcc/pic32mx/4.8.3/../../../../pic32mx/lib\libc.a(ctypef.o)
                0x9d00f138                tolower

.text.DRV_ADC_Open
                0x9d00f15c       0x20
 .text.DRV_ADC_Open
                0x9d00f15c       0x20 build/default/debug/_ext/1361460060/drv_adc_static.o
                0x9d00f15c                DRV_ADC_Open

.text.main      0x9d00f17c       0x20
 .text.main     0x9d00f17c       0x20 build/default/debug/_ext/1360937237/main.o
                0x9d00f17c                main

.text.xTaskGetSchedulerState
                0x9d00f19c       0x20
 .text.xTaskGetSchedulerState
                0x9d00f19c       0x20 build/default/debug/_ext/1128951024/tasks.o
                0x9d00f19c                xTaskGetSchedulerState

.text.IntHandlerDrvTmrInstance0
                0x9d00f1bc       0x1c
 .text.IntHandlerDrvTmrInstance0
                0x9d00f1bc       0x1c build/default/debug/_ext/1688732426/system_interrupt.o
                0x9d00f1bc                IntHandlerDrvTmrInstance0

.text.IntHandlerDrvTmrInstance1
                0x9d00f1d8       0x1c
 .text.IntHandlerDrvTmrInstance1
                0x9d00f1d8       0x1c build/default/debug/_ext/1688732426/system_interrupt.o
                0x9d00f1d8                IntHandlerDrvTmrInstance1

.text.CreateJSON_Object
                0x9d00f1f4       0x1c
 .text.CreateJSON_Object
                0x9d00f1f4       0x1c build/default/debug/_ext/45544379/JSON.o
                0x9d00f1f4                CreateJSON_Object

.text.addStringToJSON
                0x9d00f210       0x1c
 .text.addStringToJSON
                0x9d00f210       0x1c build/default/debug/_ext/45544379/JSON.o
                0x9d00f210                addStringToJSON

.text.addNumberToJSON
                0x9d00f22c       0x1c
 .text.addNumberToJSON
                0x9d00f22c       0x1c build/default/debug/_ext/45544379/JSON.o
                0x9d00f22c                addNumberToJSON

.text.vPortClearInterruptMaskFromISR
                0x9d00f248       0x1c
 .text.vPortClearInterruptMaskFromISR
                0x9d00f248       0x1c build/default/debug/_ext/12131622/port.o
                0x9d00f248                vPortClearInterruptMaskFromISR

.text.strtof    0x9d00f264       0x1c
 .text.strtof   0x9d00f264       0x1c c:/program files (x86)/microchip/xc32/v2.15/bin/bin/../../lib/gcc/pic32mx/4.8.3/../../../../pic32mx/lib\libc.a(strtof.o)
                0x9d00f264                strtof

.text.negdf2    0x9d00f280       0x1c
 .text.negdf2   0x9d00f280       0x1c c:/program files (x86)/microchip/xc32/v2.15/bin/bin/../../lib/gcc/pic32mx/4.8.3/../../../../pic32mx/lib\libm.a(negdf2.o)
                0x9d00f280                __negdf2

.text.DRV_ADC_Start
                0x9d00f29c       0x18
 .text.DRV_ADC_Start
                0x9d00f29c       0x18 build/default/debug/_ext/1361460060/drv_adc_static.o
                0x9d00f29c                DRV_ADC_Start

.text.SYS_DEVCON_JTAGDisable
                0x9d00f2b4       0x18
 .text.SYS_DEVCON_JTAGDisable
                0x9d00f2b4       0x18 build/default/debug/_ext/340578644/sys_devcon.o
                0x9d00f2b4                SYS_DEVCON_JTAGDisable

.text._TxThread_Tasks
                0x9d00f2cc       0x18
 .text._TxThread_Tasks
                0x9d00f2cc       0x18 build/default/debug/_ext/1688732426/system_tasks.o

.text._IR_Tasks
                0x9d00f2e4       0x18
 .text._IR_Tasks
                0x9d00f2e4       0x18 build/default/debug/_ext/1688732426/system_tasks.o

.text._DISTANCE_Tasks
                0x9d00f2fc       0x18
 .text._DISTANCE_Tasks
                0x9d00f2fc       0x18 build/default/debug/_ext/1688732426/system_tasks.o

.text._APP_Tasks
                0x9d00f314       0x18
 .text._APP_Tasks
                0x9d00f314       0x18 build/default/debug/_ext/1688732426/system_tasks.o

.text._SYS_Tasks
                0x9d00f32c       0x18
 .text._SYS_Tasks
                0x9d00f32c       0x18 build/default/debug/_ext/1688732426/system_tasks.o

.text           0x9d00f344       0x18
 .text          0x9d00f344       0x18 c:/program files (x86)/microchip/xc32/v2.15/bin/bin/../../lib/gcc/pic32mx/4.8.3/../../../../pic32mx/lib\libpic32.a(default-nmi-handler.o)
                0x9d00f344                _nmi_handler

.rodata         0x9d00f35c       0x18
 .rodata        0x9d00f35c       0x18 c:/program files (x86)/microchip/xc32/v2.15/bin/bin/../../lib/gcc/pic32mx/4.8.3/../../../../pic32mx/lib\libm.a(__strtof.o)

.text.SYS_DEVCON_Initialize
                0x9d00f374       0x14
 .text.SYS_DEVCON_Initialize
                0x9d00f374       0x14 build/default/debug/_ext/340578644/sys_devcon.o
                0x9d00f374                SYS_DEVCON_Initialize

.text.SYS_INT_Initialize
                0x9d00f388       0x14
 .text.SYS_INT_Initialize
                0x9d00f388       0x14 build/default/debug/_ext/122796885/sys_int_pic32.o
                0x9d00f388                SYS_INT_Initialize

.text.vTaskSuspendAll
                0x9d00f39c       0x14
 .text.vTaskSuspendAll
                0x9d00f39c       0x14 build/default/debug/_ext/1128951024/tasks.o
                0x9d00f39c                vTaskSuspendAll

.text.vTaskInternalSetTimeOutState
                0x9d00f3b0       0x14
 .text.vTaskInternalSetTimeOutState
                0x9d00f3b0       0x14 build/default/debug/_ext/1128951024/tasks.o
                0x9d00f3b0                vTaskInternalSetTimeOutState

.text.negsf2    0x9d00f3c4       0x14
 .text.negsf2   0x9d00f3c4       0x14 c:/program files (x86)/microchip/xc32/v2.15/bin/bin/../../lib/gcc/pic32mx/4.8.3/../../../../pic32mx/lib\libm.a(negsf2.o)
                0x9d00f3c4                __negsf2

.rodata         0x9d00f3d8       0x10
 .rodata        0x9d00f3d8       0x10 build/default/debug/_ext/1360937237/app.o

.text.dbgOutputLoc
                0x9d00f3e8       0x10
 .text.dbgOutputLoc
                0x9d00f3e8       0x10 build/default/debug/_ext/45544379/debug.o
                0x9d00f3e8                dbgOutputLoc

.text.vTaskMissedYield
                0x9d00f3f8       0x10
 .text.vTaskMissedYield
                0x9d00f3f8       0x10 build/default/debug/_ext/1128951024/tasks.o
                0x9d00f3f8                vTaskMissedYield

.text.__exception_handler_break
                0x9d00f408        0xc
 .text.__exception_handler_break
                0x9d00f408        0xc c:/program files (x86)/microchip/xc32/v2.15/bin/bin/../../lib/gcc/pic32mx/4.8.3/../../../../pic32mx/lib\software-debug-break.o
                0x9d00f408                __exception_handler_break

.text.SYS_CLK_SystemFrequencyGet
                0x9d00f414        0xc
 .text.SYS_CLK_SystemFrequencyGet
                0x9d00f414        0xc build/default/debug/_ext/639803181/sys_clk_pic32mx.o
                0x9d00f414                SYS_CLK_SystemFrequencyGet

.text.SYS_CLK_PeripheralFrequencyGet
                0x9d00f420        0xc
 .text.SYS_CLK_PeripheralFrequencyGet
                0x9d00f420        0xc build/default/debug/_ext/639803181/sys_clk_pic32mx.o
                0x9d00f420                SYS_CLK_PeripheralFrequencyGet

.text.xTaskGetTickCount
                0x9d00f42c        0xc
 .text.xTaskGetTickCount
                0x9d00f42c        0xc build/default/debug/_ext/1128951024/tasks.o
                0x9d00f42c                xTaskGetTickCount

.text.DISTANCE_Initialize
                0x9d00f438        0x8
 .text.DISTANCE_Initialize
                0x9d00f438        0x8 build/default/debug/_ext/1360937237/Distance.o
                0x9d00f438                DISTANCE_Initialize

.rodata         0x9d00f440        0x8
 .rodata        0x9d00f440        0x8 build/default/debug/_ext/1360937237/IR.o

.text.vListInitialiseItem
                0x9d00f448        0x8
 .text.vListInitialiseItem
                0x9d00f448        0x8 build/default/debug/_ext/1128951024/list.o
                0x9d00f448                vListInitialiseItem

.rodata         0x9d00f450       0x10
 .rodata        0x9d00f450        0x8 build/default/debug/_ext/1128951024/tasks.o
 .rodata        0x9d00f458        0x8 build/default/debug/_ext/1128951024/timers.o

.text._on_reset
                0x9d00f460        0x8
 .text._on_reset
                0x9d00f460        0x8 c:/program files (x86)/microchip/xc32/v2.15/bin/bin/../../lib/gcc/pic32mx/4.8.3/../../../../pic32mx/lib\libpic32.a(default-on-reset.o)
                0x9d00f460                _on_reset

.text._on_bootstrap
                0x9d00f468        0x8
 .text._on_bootstrap
                0x9d00f468        0x8 c:/program files (x86)/microchip/xc32/v2.15/bin/bin/../../lib/gcc/pic32mx/4.8.3/../../../../pic32mx/lib\libpic32.a(default-on-bootstrap.o)
                0x9d00f468                _on_bootstrap

.rodata         0x9d00f470       0x10
 .rodata        0x9d00f470        0x8 c:/program files (x86)/microchip/xc32/v2.15/bin/bin/../../lib/gcc/pic32mx/4.8.3\libgcc.a(_floatundidf.o)
 .rodata        0x9d00f478        0x8 c:/program files (x86)/microchip/xc32/v2.15/bin/bin/../../lib/gcc/pic32mx/4.8.3\libgcc.a(floatunsidf.o)

.rodata         0x9d00f480        0x4
 .rodata        0x9d00f480        0x4 build/default/debug/_ext/12131622/port.o
                0x9d00f480                xISRStackTop
